
sh:     file format elf32-i386


Disassembly of section .text:

00000000 <code>:
       0:	8d 4c 24 04          	lea    ecx,[esp+0x4]
       4:	83 e4 f0             	and    esp,0xfffffff0
       7:	ff 71 fc             	push   DWORD PTR [ecx-0x4]
       a:	55                   	push   ebp
       b:	89 e5                	mov    ebp,esp
       d:	53                   	push   ebx
       e:	51                   	push   ecx
       f:	81 ec 90 00 00 00    	sub    esp,0x90
      15:	c7 45 f0 00 00 00 00 	mov    DWORD PTR [ebp-0x10],0x0
      1c:	a1 c4 35 00 00       	mov    eax,ds:0x35c4
      21:	83 f8 01             	cmp    eax,0x1
      24:	0f 84 ae 00 00 00    	je     d8 <code+0xd8>
      2a:	e8 1e 14 00 00       	call   144d <code+0x144d>
      2f:	83 f8 01             	cmp    eax,0x1
      32:	75 1b                	jne    4f <code+0x4f>
      34:	e8 cc 13 00 00       	call   1405 <code+0x1405>
      39:	85 c0                	test   eax,eax
      3b:	74 12                	je     4f <code+0x4f>
      3d:	83 ec 0c             	sub    esp,0xc
      40:	68 84 25 00 00       	push   0x2584
      45:	e8 30 14 00 00       	call   147a <code+0x147a>
      4a:	83 c4 10             	add    esp,0x10
      4d:	eb fe                	jmp    4d <code+0x4d>
      4f:	e8 b1 13 00 00       	call   1405 <code+0x1405>
      54:	85 c0                	test   eax,eax
      56:	75 0f                	jne    67 <code+0x67>
      58:	83 ec 0c             	sub    esp,0xc
      5b:	6a 01                	push   0x1
      5d:	e8 9d 14 00 00       	call   14ff <code+0x14ff>
      62:	83 c4 10             	add    esp,0x10
      65:	eb 46                	jmp    ad <code+0xad>
      67:	e8 99 13 00 00       	call   1405 <code+0x1405>
      6c:	85 c0                	test   eax,eax
      6e:	75 0f                	jne    7f <code+0x7f>
      70:	83 ec 0c             	sub    esp,0xc
      73:	6a 02                	push   0x2
      75:	e8 85 14 00 00       	call   14ff <code+0x14ff>
      7a:	83 c4 10             	add    esp,0x10
      7d:	eb 2e                	jmp    ad <code+0xad>
      7f:	e8 81 13 00 00       	call   1405 <code+0x1405>
      84:	85 c0                	test   eax,eax
      86:	75 0f                	jne    97 <code+0x97>
      88:	83 ec 0c             	sub    esp,0xc
      8b:	6a 03                	push   0x3
      8d:	e8 6d 14 00 00       	call   14ff <code+0x14ff>
      92:	83 c4 10             	add    esp,0x10
      95:	eb 16                	jmp    ad <code+0xad>
      97:	e8 69 13 00 00       	call   1405 <code+0x1405>
      9c:	85 c0                	test   eax,eax
      9e:	75 0d                	jne    ad <code+0xad>
      a0:	83 ec 0c             	sub    esp,0xc
      a3:	6a 04                	push   0x4
      a5:	e8 55 14 00 00       	call   14ff <code+0x14ff>
      aa:	83 c4 10             	add    esp,0x10
      ad:	83 ec 0c             	sub    esp,0xc
      b0:	68 89 25 00 00       	push   0x2589
      b5:	e8 c0 13 00 00       	call   147a <code+0x147a>
      ba:	83 c4 10             	add    esp,0x10
      bd:	e8 8b 13 00 00       	call   144d <code+0x144d>
      c2:	83 f8 01             	cmp    eax,0x1
      c5:	7e 12                	jle    d9 <code+0xd9>
      c7:	e8 81 13 00 00       	call   144d <code+0x144d>
      cc:	83 f8 06             	cmp    eax,0x6
      cf:	7f 08                	jg     d9 <code+0xd9>
      d1:	e8 c3 0d 00 00       	call   e99 <code+0xe99>
      d6:	eb 01                	jmp    d9 <code+0xd9>
      d8:	90                   	nop
      d9:	e8 aa 1f 00 00       	call   2088 <code+0x2088>
      de:	0f b7 c0             	movzx  eax,ax
      e1:	a3 a0 40 00 00       	mov    ds:0x40a0,eax
      e6:	a1 a0 40 00 00       	mov    eax,ds:0x40a0
      eb:	85 c0                	test   eax,eax
      ed:	75 07                	jne    f6 <code+0xf6>
      ef:	c6 05 c0 35 00 00 23 	mov    BYTE PTR ds:0x35c0,0x23
      f6:	8b 15 c8 35 00 00    	mov    edx,DWORD PTR ds:0x35c8
      fc:	a1 a0 40 00 00       	mov    eax,ds:0x40a0
     101:	0f b7 c0             	movzx  eax,ax
     104:	83 ec 0c             	sub    esp,0xc
     107:	68 c0 41 00 00       	push   0x41c0
     10c:	68 c8 00 00 00       	push   0xc8
     111:	68 60 42 00 00       	push   0x4260
     116:	52                   	push   edx
     117:	50                   	push   eax
     118:	e8 8d 1c 00 00       	call   1daa <code+0x1daa>
     11d:	83 c4 20             	add    esp,0x20
     120:	85 c0                	test   eax,eax
     122:	75 1b                	jne    13f <code+0x13f>
     124:	83 ec 04             	sub    esp,0x4
     127:	6a 20                	push   0x20
     129:	68 e0 41 00 00       	push   0x41e0
     12e:	8d 85 6b ff ff ff    	lea    eax,[ebp-0x95]
     134:	50                   	push   eax
     135:	e8 b3 10 00 00       	call   11ed <code+0x11ed>
     13a:	83 c4 10             	add    esp,0x10
     13d:	eb 19                	jmp    158 <code+0x158>
     13f:	83 ec 04             	sub    esp,0x4
     142:	6a 20                	push   0x20
     144:	68 90 25 00 00       	push   0x2590
     149:	8d 85 6b ff ff ff    	lea    eax,[ebp-0x95]
     14f:	50                   	push   eax
     150:	e8 98 10 00 00       	call   11ed <code+0x11ed>
     155:	83 c4 10             	add    esp,0x10
     158:	83 ec 08             	sub    esp,0x8
     15b:	68 00 01 00 00       	push   0x100
     160:	68 c0 40 00 00       	push   0x40c0
     165:	e8 46 18 00 00       	call   19b0 <code+0x19b0>
     16a:	83 c4 10             	add    esp,0x10
     16d:	83 ec 0c             	sub    esp,0xc
     170:	6a 00                	push   0x0
     172:	e8 86 15 00 00       	call   16fd <code+0x16fd>
     177:	83 c4 10             	add    esp,0x10
     17a:	84 c0                	test   al,al
     17c:	74 2b                	je     1a9 <code+0x1a9>
     17e:	a0 c0 35 00 00       	mov    al,ds:0x35c0
     183:	0f be d8             	movsx  ebx,al
     186:	e8 c2 12 00 00       	call   144d <code+0x144d>
     18b:	83 ec 0c             	sub    esp,0xc
     18e:	53                   	push   ebx
     18f:	68 c0 40 00 00       	push   0x40c0
     194:	50                   	push   eax
     195:	8d 85 6b ff ff ff    	lea    eax,[ebp-0x95]
     19b:	50                   	push   eax
     19c:	68 98 25 00 00       	push   0x2598
     1a1:	e8 b7 23 00 00       	call   255d <code+0x255d>
     1a6:	83 c4 20             	add    esp,0x20
     1a9:	83 ec 0c             	sub    esp,0xc
     1ac:	6a 00                	push   0x0
     1ae:	e8 4a 15 00 00       	call   16fd <code+0x16fd>
     1b3:	83 c4 10             	add    esp,0x10
     1b6:	0f b6 c0             	movzx  eax,al
     1b9:	83 ec 04             	sub    esp,0x4
     1bc:	50                   	push   eax
     1bd:	6a 64                	push   0x64
     1bf:	8d 45 8b             	lea    eax,[ebp-0x75]
     1c2:	50                   	push   eax
     1c3:	e8 fe 15 00 00       	call   17c6 <code+0x17c6>
     1c8:	83 c4 10             	add    esp,0x10
     1cb:	66 89 45 f6          	mov    WORD PTR [ebp-0xa],ax
     1cf:	66 83 7d f6 ff       	cmp    WORD PTR [ebp-0xa],0xffffffff
     1d4:	75 0d                	jne    1e3 <code+0x1e3>
     1d6:	83 ec 0c             	sub    esp,0xc
     1d9:	6a 00                	push   0x0
     1db:	e8 30 12 00 00       	call   1410 <code+0x1410>
     1e0:	83 c4 10             	add    esp,0x10
     1e3:	83 ec 08             	sub    esp,0x8
     1e6:	68 aa 25 00 00       	push   0x25aa
     1eb:	8d 45 8b             	lea    eax,[ebp-0x75]
     1ee:	50                   	push   eax
     1ef:	e8 da 0e 00 00       	call   10ce <code+0x10ce>
     1f4:	83 c4 10             	add    esp,0x10
     1f7:	85 c0                	test   eax,eax
     1f9:	75 2b                	jne    226 <code+0x226>
     1fb:	e8 4d 12 00 00       	call   144d <code+0x144d>
     200:	83 f8 02             	cmp    eax,0x2
     203:	75 12                	jne    217 <code+0x217>
     205:	83 ec 0c             	sub    esp,0xc
     208:	68 b0 25 00 00       	push   0x25b0
     20d:	e8 4b 23 00 00       	call   255d <code+0x255d>
     212:	83 c4 10             	add    esp,0x10
     215:	eb 0d                	jmp    224 <code+0x224>
     217:	83 ec 0c             	sub    esp,0xc
     21a:	6a 00                	push   0x0
     21c:	e8 ef 11 00 00       	call   1410 <code+0x1410>
     221:	83 c4 10             	add    esp,0x10
     224:	eb 2e                	jmp    254 <code+0x254>
     226:	83 ec 08             	sub    esp,0x8
     229:	68 e5 25 00 00       	push   0x25e5
     22e:	8d 45 8b             	lea    eax,[ebp-0x75]
     231:	50                   	push   eax
     232:	e8 97 0e 00 00       	call   10ce <code+0x10ce>
     237:	83 c4 10             	add    esp,0x10
     23a:	85 c0                	test   eax,eax
     23c:	75 02                	jne    240 <code+0x240>
     23e:	eb 14                	jmp    254 <code+0x254>
     240:	83 ec 0c             	sub    esp,0xc
     243:	8d 45 8b             	lea    eax,[ebp-0x75]
     246:	50                   	push   eax
     247:	e8 d4 01 00 00       	call   420 <code+0x420>
     24c:	83 c4 10             	add    esp,0x10
     24f:	e9 04 ff ff ff       	jmp    158 <code+0x158>
     254:	e9 ff fe ff ff       	jmp    158 <code+0x158>
     259:	53                   	push   ebx
     25a:	83 ec 28             	sub    esp,0x28
     25d:	e8 a3 11 00 00       	call   1405 <code+0x1405>
     262:	89 44 24 14          	mov    DWORD PTR [esp+0x14],eax
     266:	83 7c 24 14 00       	cmp    DWORD PTR [esp+0x14],0x0
     26b:	74 15                	je     282 <code+0x282>
     26d:	e8 93 11 00 00       	call   1405 <code+0x1405>
     272:	89 44 24 18          	mov    DWORD PTR [esp+0x18],eax
     276:	83 7c 24 18 00       	cmp    DWORD PTR [esp+0x18],0x0
     27b:	74 05                	je     282 <code+0x282>
     27d:	e8 b5 11 00 00       	call   1437 <code+0x1437>
     282:	66 a1 51 26 00 00    	mov    ax,ds:0x2651
     288:	66 89 44 24 12       	mov    WORD PTR [esp+0x12],ax
     28d:	e8 bb 11 00 00       	call   144d <code+0x144d>
     292:	83 c0 61             	add    eax,0x61
     295:	88 44 24 12          	mov    BYTE PTR [esp+0x12],al
     299:	c7 44 24 1c 00 00 00 	mov    DWORD PTR [esp+0x1c],0x0
     2a0:	00 
     2a1:	83 7c 24 14 00       	cmp    DWORD PTR [esp+0x14],0x0
     2a6:	74 07                	je     2af <code+0x2af>
     2a8:	83 7c 24 18 00       	cmp    DWORD PTR [esp+0x18],0x0
     2ad:	75 5b                	jne    30a <code+0x30a>
     2af:	83 ec 0c             	sub    esp,0xc
     2b2:	68 e6 25 00 00       	push   0x25e6
     2b7:	e8 be 11 00 00       	call   147a <code+0x147a>
     2bc:	83 c4 10             	add    esp,0x10
     2bf:	e8 89 11 00 00       	call   144d <code+0x144d>
     2c4:	8d 58 64             	lea    ebx,[eax+0x64]
     2c7:	e8 81 11 00 00       	call   144d <code+0x144d>
     2cc:	83 ec 04             	sub    esp,0x4
     2cf:	53                   	push   ebx
     2d0:	50                   	push   eax
     2d1:	68 f0 25 00 00       	push   0x25f0
     2d6:	e8 82 22 00 00       	call   255d <code+0x255d>
     2db:	83 c4 10             	add    esp,0x10
     2de:	e8 6a 11 00 00       	call   144d <code+0x144d>
     2e3:	83 c0 64             	add    eax,0x64
     2e6:	83 ec 0c             	sub    esp,0xc
     2e9:	50                   	push   eax
     2ea:	e8 21 11 00 00       	call   1410 <code+0x1410>
     2ef:	83 c4 10             	add    esp,0x10
     2f2:	e8 56 11 00 00       	call   144d <code+0x144d>
     2f7:	83 ec 08             	sub    esp,0x8
     2fa:	50                   	push   eax
     2fb:	68 17 26 00 00       	push   0x2617
     300:	e8 58 22 00 00       	call   255d <code+0x255d>
     305:	83 c4 10             	add    esp,0x10
     308:	eb 63                	jmp    36d <code+0x36d>
     30a:	83 ec 04             	sub    esp,0x4
     30d:	6a 00                	push   0x0
     30f:	8d 44 24 14          	lea    eax,[esp+0x14]
     313:	50                   	push   eax
     314:	ff 74 24 20          	push   DWORD PTR [esp+0x20]
     318:	e8 02 11 00 00       	call   141f <code+0x141f>
     31d:	83 c4 10             	add    esp,0x10
     320:	8b 5c 24 0c          	mov    ebx,DWORD PTR [esp+0xc]
     324:	e8 24 11 00 00       	call   144d <code+0x144d>
     329:	83 ec 04             	sub    esp,0x4
     32c:	53                   	push   ebx
     32d:	50                   	push   eax
     32e:	68 35 26 00 00       	push   0x2635
     333:	e8 25 22 00 00       	call   255d <code+0x255d>
     338:	83 c4 10             	add    esp,0x10
     33b:	83 ec 04             	sub    esp,0x4
     33e:	6a 00                	push   0x0
     340:	8d 44 24 14          	lea    eax,[esp+0x14]
     344:	50                   	push   eax
     345:	ff 74 24 24          	push   DWORD PTR [esp+0x24]
     349:	e8 d1 10 00 00       	call   141f <code+0x141f>
     34e:	83 c4 10             	add    esp,0x10
     351:	8b 5c 24 0c          	mov    ebx,DWORD PTR [esp+0xc]
     355:	e8 f3 10 00 00       	call   144d <code+0x144d>
     35a:	83 ec 04             	sub    esp,0x4
     35d:	53                   	push   ebx
     35e:	50                   	push   eax
     35f:	68 35 26 00 00       	push   0x2635
     364:	e8 f4 21 00 00       	call   255d <code+0x255d>
     369:	83 c4 10             	add    esp,0x10
     36c:	90                   	nop
     36d:	83 c4 28             	add    esp,0x28
     370:	5b                   	pop    ebx
     371:	c3                   	ret    
     372:	83 ec 1c             	sub    esp,0x1c
     375:	e8 8b 10 00 00       	call   1405 <code+0x1405>
     37a:	89 44 24 0c          	mov    DWORD PTR [esp+0xc],eax
     37e:	83 ec 08             	sub    esp,0x8
     381:	ff 74 24 14          	push   DWORD PTR [esp+0x14]
     385:	68 53 26 00 00       	push   0x2653
     38a:	e8 ce 21 00 00       	call   255d <code+0x255d>
     38f:	83 c4 10             	add    esp,0x10
     392:	83 c4 1c             	add    esp,0x1c
     395:	c3                   	ret    
     396:	83 ec 10             	sub    esp,0x10
     399:	c7 44 24 08 00 00 00 	mov    DWORD PTR [esp+0x8],0x0
     3a0:	00 
     3a1:	66 c7 44 24 0e 01 00 	mov    WORD PTR [esp+0xe],0x1
     3a8:	eb 04                	jmp    3ae <code+0x3ae>
     3aa:	ff 44 24 14          	inc    DWORD PTR [esp+0x14]
     3ae:	8b 44 24 14          	mov    eax,DWORD PTR [esp+0x14]
     3b2:	8a 00                	mov    al,BYTE PTR [eax]
     3b4:	3c 20                	cmp    al,0x20
     3b6:	74 f2                	je     3aa <code+0x3aa>
     3b8:	66 83 7c 24 0e 01    	cmp    WORD PTR [esp+0xe],0x1
     3be:	75 1c                	jne    3dc <code+0x3dc>
     3c0:	8b 44 24 08          	mov    eax,DWORD PTR [esp+0x8]
     3c4:	c1 e0 02             	shl    eax,0x2
     3c7:	03 44 24 18          	add    eax,DWORD PTR [esp+0x18]
     3cb:	8b 54 24 14          	mov    edx,DWORD PTR [esp+0x14]
     3cf:	89 10                	mov    DWORD PTR [eax],edx
     3d1:	66 c7 44 24 0e 00 00 	mov    WORD PTR [esp+0xe],0x0
     3d8:	ff 44 24 08          	inc    DWORD PTR [esp+0x8]
     3dc:	8b 44 24 14          	mov    eax,DWORD PTR [esp+0x14]
     3e0:	8a 00                	mov    al,BYTE PTR [eax]
     3e2:	3c 20                	cmp    al,0x20
     3e4:	75 24                	jne    40a <code+0x40a>
     3e6:	8b 44 24 14          	mov    eax,DWORD PTR [esp+0x14]
     3ea:	c6 00 00             	mov    BYTE PTR [eax],0x0
     3ed:	ff 44 24 14          	inc    DWORD PTR [esp+0x14]
     3f1:	eb 04                	jmp    3f7 <code+0x3f7>
     3f3:	ff 44 24 14          	inc    DWORD PTR [esp+0x14]
     3f7:	8b 44 24 14          	mov    eax,DWORD PTR [esp+0x14]
     3fb:	8a 00                	mov    al,BYTE PTR [eax]
     3fd:	3c 20                	cmp    al,0x20
     3ff:	74 f2                	je     3f3 <code+0x3f3>
     401:	66 c7 44 24 0e 01 00 	mov    WORD PTR [esp+0xe],0x1
     408:	eb 04                	jmp    40e <code+0x40e>
     40a:	ff 44 24 14          	inc    DWORD PTR [esp+0x14]
     40e:	8b 44 24 14          	mov    eax,DWORD PTR [esp+0x14]
     412:	8a 00                	mov    al,BYTE PTR [eax]
     414:	84 c0                	test   al,al
     416:	75 a0                	jne    3b8 <code+0x3b8>
     418:	8b 44 24 08          	mov    eax,DWORD PTR [esp+0x8]
     41c:	83 c4 10             	add    esp,0x10
     41f:	c3                   	ret    
     420:	81 ec 0c 01 00 00    	sub    esp,0x10c
     426:	c7 84 24 b8 00 00 00 	mov    DWORD PTR [esp+0xb8],0x0
     42d:	00 00 00 00 
     431:	c7 84 24 bc 00 00 00 	mov    DWORD PTR [esp+0xbc],0x0
     438:	00 00 00 00 
     43c:	c7 84 24 c0 00 00 00 	mov    DWORD PTR [esp+0xc0],0x0
     443:	00 00 00 00 
     447:	8d 84 24 90 00 00 00 	lea    eax,[esp+0x90]
     44e:	50                   	push   eax
     44f:	ff b4 24 14 01 00 00 	push   DWORD PTR [esp+0x114]
     456:	e8 3b ff ff ff       	call   396 <code+0x396>
     45b:	83 c4 08             	add    esp,0x8
     45e:	89 84 24 c4 00 00 00 	mov    DWORD PTR [esp+0xc4],eax
     465:	8b 84 24 90 00 00 00 	mov    eax,DWORD PTR [esp+0x90]
     46c:	89 84 24 10 01 00 00 	mov    DWORD PTR [esp+0x110],eax
     473:	8b 84 24 10 01 00 00 	mov    eax,DWORD PTR [esp+0x110]
     47a:	8a 00                	mov    al,BYTE PTR [eax]
     47c:	84 c0                	test   al,al
     47e:	0f 84 07 0a 00 00    	je     e8b <code+0xe8b>
     484:	83 bc 24 c4 00 00 00 	cmp    DWORD PTR [esp+0xc4],0x1
     48b:	01 
     48c:	7e 64                	jle    4f2 <code+0x4f2>
     48e:	8b 84 24 c4 00 00 00 	mov    eax,DWORD PTR [esp+0xc4]
     495:	83 e8 02             	sub    eax,0x2
     498:	8b 84 84 90 00 00 00 	mov    eax,DWORD PTR [esp+eax*4+0x90]
     49f:	83 ec 08             	sub    esp,0x8
     4a2:	68 64 26 00 00       	push   0x2664
     4a7:	50                   	push   eax
     4a8:	e8 21 0c 00 00       	call   10ce <code+0x10ce>
     4ad:	83 c4 10             	add    esp,0x10
     4b0:	85 c0                	test   eax,eax
     4b2:	75 3e                	jne    4f2 <code+0x4f2>
     4b4:	8b 84 24 c4 00 00 00 	mov    eax,DWORD PTR [esp+0xc4]
     4bb:	48                   	dec    eax
     4bc:	8b 84 84 90 00 00 00 	mov    eax,DWORD PTR [esp+eax*4+0x90]
     4c3:	83 ec 08             	sub    esp,0x8
     4c6:	50                   	push   eax
     4c7:	68 67 26 00 00       	push   0x2667
     4cc:	e8 8c 20 00 00       	call   255d <code+0x255d>
     4d1:	83 c4 10             	add    esp,0x10
     4d4:	8b 84 24 c4 00 00 00 	mov    eax,DWORD PTR [esp+0xc4]
     4db:	48                   	dec    eax
     4dc:	8b 84 84 90 00 00 00 	mov    eax,DWORD PTR [esp+eax*4+0x90]
     4e3:	89 84 24 bc 00 00 00 	mov    DWORD PTR [esp+0xbc],eax
     4ea:	83 ac 24 c4 00 00 00 	sub    DWORD PTR [esp+0xc4],0x2
     4f1:	02 
     4f2:	83 bc 24 c4 00 00 00 	cmp    DWORD PTR [esp+0xc4],0x1
     4f9:	01 
     4fa:	7e 64                	jle    560 <code+0x560>
     4fc:	8b 84 24 c4 00 00 00 	mov    eax,DWORD PTR [esp+0xc4]
     503:	83 e8 02             	sub    eax,0x2
     506:	8b 84 84 90 00 00 00 	mov    eax,DWORD PTR [esp+eax*4+0x90]
     50d:	83 ec 08             	sub    esp,0x8
     510:	68 7e 26 00 00       	push   0x267e
     515:	50                   	push   eax
     516:	e8 b3 0b 00 00       	call   10ce <code+0x10ce>
     51b:	83 c4 10             	add    esp,0x10
     51e:	85 c0                	test   eax,eax
     520:	75 3e                	jne    560 <code+0x560>
     522:	8b 84 24 c4 00 00 00 	mov    eax,DWORD PTR [esp+0xc4]
     529:	48                   	dec    eax
     52a:	8b 84 84 90 00 00 00 	mov    eax,DWORD PTR [esp+eax*4+0x90]
     531:	83 ec 08             	sub    esp,0x8
     534:	50                   	push   eax
     535:	68 80 26 00 00       	push   0x2680
     53a:	e8 1e 20 00 00       	call   255d <code+0x255d>
     53f:	83 c4 10             	add    esp,0x10
     542:	8b 84 24 c4 00 00 00 	mov    eax,DWORD PTR [esp+0xc4]
     549:	48                   	dec    eax
     54a:	8b 84 84 90 00 00 00 	mov    eax,DWORD PTR [esp+eax*4+0x90]
     551:	89 84 24 b8 00 00 00 	mov    DWORD PTR [esp+0xb8],eax
     558:	83 ac 24 c4 00 00 00 	sub    DWORD PTR [esp+0xc4],0x2
     55f:	02 
     560:	83 bc 24 c4 00 00 00 	cmp    DWORD PTR [esp+0xc4],0x1
     567:	01 
     568:	7e 64                	jle    5ce <code+0x5ce>
     56a:	8b 84 24 c4 00 00 00 	mov    eax,DWORD PTR [esp+0xc4]
     571:	83 e8 02             	sub    eax,0x2
     574:	8b 84 84 90 00 00 00 	mov    eax,DWORD PTR [esp+eax*4+0x90]
     57b:	83 ec 08             	sub    esp,0x8
     57e:	68 97 26 00 00       	push   0x2697
     583:	50                   	push   eax
     584:	e8 45 0b 00 00       	call   10ce <code+0x10ce>
     589:	83 c4 10             	add    esp,0x10
     58c:	85 c0                	test   eax,eax
     58e:	75 3e                	jne    5ce <code+0x5ce>
     590:	8b 84 24 c4 00 00 00 	mov    eax,DWORD PTR [esp+0xc4]
     597:	48                   	dec    eax
     598:	8b 84 84 90 00 00 00 	mov    eax,DWORD PTR [esp+eax*4+0x90]
     59f:	83 ec 08             	sub    esp,0x8
     5a2:	50                   	push   eax
     5a3:	68 99 26 00 00       	push   0x2699
     5a8:	e8 b0 1f 00 00       	call   255d <code+0x255d>
     5ad:	83 c4 10             	add    esp,0x10
     5b0:	8b 84 24 c4 00 00 00 	mov    eax,DWORD PTR [esp+0xc4]
     5b7:	48                   	dec    eax
     5b8:	8b 84 84 90 00 00 00 	mov    eax,DWORD PTR [esp+eax*4+0x90]
     5bf:	89 84 24 c0 00 00 00 	mov    DWORD PTR [esp+0xc0],eax
     5c6:	83 ac 24 c4 00 00 00 	sub    DWORD PTR [esp+0xc4],0x2
     5cd:	02 
     5ce:	83 ec 08             	sub    esp,0x8
     5d1:	68 af 26 00 00       	push   0x26af
     5d6:	ff b4 24 1c 01 00 00 	push   DWORD PTR [esp+0x11c]
     5dd:	e8 ec 0a 00 00       	call   10ce <code+0x10ce>
     5e2:	83 c4 10             	add    esp,0x10
     5e5:	85 c0                	test   eax,eax
     5e7:	75 2b                	jne    614 <code+0x614>
     5e9:	8b 84 24 94 00 00 00 	mov    eax,DWORD PTR [esp+0x94]
     5f0:	89 84 24 98 00 00 00 	mov    DWORD PTR [esp+0x98],eax
     5f7:	c7 84 24 94 00 00 00 	mov    DWORD PTR [esp+0x94],0x26b2
     5fe:	b2 26 00 00 
     602:	c7 84 24 90 00 00 00 	mov    DWORD PTR [esp+0x90],0x26b5
     609:	b5 26 00 00 
     60d:	ff 84 24 c4 00 00 00 	inc    DWORD PTR [esp+0xc4]
     614:	83 ec 08             	sub    esp,0x8
     617:	68 b8 26 00 00       	push   0x26b8
     61c:	ff b4 24 1c 01 00 00 	push   DWORD PTR [esp+0x11c]
     623:	e8 a6 0a 00 00       	call   10ce <code+0x10ce>
     628:	83 c4 10             	add    esp,0x10
     62b:	85 c0                	test   eax,eax
     62d:	75 20                	jne    64f <code+0x64f>
     62f:	e8 19 0e 00 00       	call   144d <code+0x144d>
     634:	83 ec 08             	sub    esp,0x8
     637:	50                   	push   eax
     638:	68 bd 26 00 00       	push   0x26bd
     63d:	e8 1b 1f 00 00       	call   255d <code+0x255d>
     642:	83 c4 10             	add    esp,0x10
     645:	e8 0f fc ff ff       	call   259 <code+0x259>
     64a:	e9 43 08 00 00       	jmp    e92 <code+0xe92>
     64f:	83 ec 08             	sub    esp,0x8
     652:	68 d8 26 00 00       	push   0x26d8
     657:	ff b4 24 1c 01 00 00 	push   DWORD PTR [esp+0x11c]
     65e:	e8 6b 0a 00 00       	call   10ce <code+0x10ce>
     663:	83 c4 10             	add    esp,0x10
     666:	85 c0                	test   eax,eax
     668:	75 4f                	jne    6b9 <code+0x6b9>
     66a:	c7 84 24 c8 00 00 00 	mov    DWORD PTR [esp+0xc8],0x0
     671:	00 00 00 00 
     675:	eb 2d                	jmp    6a4 <code+0x6a4>
     677:	8b 84 24 c8 00 00 00 	mov    eax,DWORD PTR [esp+0xc8]
     67e:	8b 84 84 90 00 00 00 	mov    eax,DWORD PTR [esp+eax*4+0x90]
     685:	83 ec 04             	sub    esp,0x4
     688:	50                   	push   eax
     689:	ff b4 24 d0 00 00 00 	push   DWORD PTR [esp+0xd0]
     690:	68 dd 26 00 00       	push   0x26dd
     695:	e8 c3 1e 00 00       	call   255d <code+0x255d>
     69a:	83 c4 10             	add    esp,0x10
     69d:	ff 84 24 c8 00 00 00 	inc    DWORD PTR [esp+0xc8]
     6a4:	8b 84 24 c8 00 00 00 	mov    eax,DWORD PTR [esp+0xc8]
     6ab:	3b 84 24 c4 00 00 00 	cmp    eax,DWORD PTR [esp+0xc4]
     6b2:	7c c3                	jl     677 <code+0x677>
     6b4:	e9 d9 07 00 00       	jmp    e92 <code+0xe92>
     6b9:	83 ec 08             	sub    esp,0x8
     6bc:	68 eb 26 00 00       	push   0x26eb
     6c1:	ff b4 24 1c 01 00 00 	push   DWORD PTR [esp+0x11c]
     6c8:	e8 01 0a 00 00       	call   10ce <code+0x10ce>
     6cd:	83 c4 10             	add    esp,0x10
     6d0:	85 c0                	test   eax,eax
     6d2:	75 30                	jne    704 <code+0x704>
     6d4:	c7 84 24 cc 00 00 00 	mov    DWORD PTR [esp+0xcc],0x0
     6db:	00 00 00 00 
     6df:	eb 11                	jmp    6f2 <code+0x6f2>
     6e1:	e8 73 fb ff ff       	call   259 <code+0x259>
     6e6:	e8 4c 0d 00 00       	call   1437 <code+0x1437>
     6eb:	ff 84 24 cc 00 00 00 	inc    DWORD PTR [esp+0xcc]
     6f2:	81 bc 24 cc 00 00 00 	cmp    DWORD PTR [esp+0xcc],0x1f3
     6f9:	f3 01 00 00 
     6fd:	7e e2                	jle    6e1 <code+0x6e1>
     6ff:	e9 8e 07 00 00       	jmp    e92 <code+0xe92>
     704:	83 ec 08             	sub    esp,0x8
     707:	68 f1 26 00 00       	push   0x26f1
     70c:	ff b4 24 1c 01 00 00 	push   DWORD PTR [esp+0x11c]
     713:	e8 b6 09 00 00       	call   10ce <code+0x10ce>
     718:	83 c4 10             	add    esp,0x10
     71b:	85 c0                	test   eax,eax
     71d:	0f 85 92 00 00 00    	jne    7b5 <code+0x7b5>
     723:	8b 84 24 c4 00 00 00 	mov    eax,DWORD PTR [esp+0xc4]
     72a:	83 f8 01             	cmp    eax,0x1
     72d:	74 07                	je     736 <code+0x736>
     72f:	83 f8 02             	cmp    eax,0x2
     732:	74 34                	je     768 <code+0x768>
     734:	eb 6a                	jmp    7a0 <code+0x7a0>
     736:	83 ec 0c             	sub    esp,0xc
     739:	68 f4 26 00 00       	push   0x26f4
     73e:	e8 84 12 00 00       	call   19c7 <code+0x19c7>
     743:	83 c4 10             	add    esp,0x10
     746:	85 c0                	test   eax,eax
     748:	0f 84 40 07 00 00    	je     e8e <code+0xe8e>
     74e:	83 ec 08             	sub    esp,0x8
     751:	68 f4 26 00 00       	push   0x26f4
     756:	68 f6 26 00 00       	push   0x26f6
     75b:	e8 fd 1d 00 00       	call   255d <code+0x255d>
     760:	83 c4 10             	add    esp,0x10
     763:	e9 2a 07 00 00       	jmp    e92 <code+0xe92>
     768:	8b 84 24 94 00 00 00 	mov    eax,DWORD PTR [esp+0x94]
     76f:	83 ec 0c             	sub    esp,0xc
     772:	50                   	push   eax
     773:	e8 4f 12 00 00       	call   19c7 <code+0x19c7>
     778:	83 c4 10             	add    esp,0x10
     77b:	85 c0                	test   eax,eax
     77d:	0f 84 0e 07 00 00    	je     e91 <code+0xe91>
     783:	8b 84 24 94 00 00 00 	mov    eax,DWORD PTR [esp+0x94]
     78a:	83 ec 08             	sub    esp,0x8
     78d:	50                   	push   eax
     78e:	68 f6 26 00 00       	push   0x26f6
     793:	e8 c5 1d 00 00       	call   255d <code+0x255d>
     798:	83 c4 10             	add    esp,0x10
     79b:	e9 f2 06 00 00       	jmp    e92 <code+0xe92>
     7a0:	83 ec 0c             	sub    esp,0xc
     7a3:	68 0e 27 00 00       	push   0x270e
     7a8:	e8 b0 1d 00 00       	call   255d <code+0x255d>
     7ad:	83 c4 10             	add    esp,0x10
     7b0:	e9 dd 06 00 00       	jmp    e92 <code+0xe92>
     7b5:	83 ec 08             	sub    esp,0x8
     7b8:	68 24 27 00 00       	push   0x2724
     7bd:	ff b4 24 1c 01 00 00 	push   DWORD PTR [esp+0x11c]
     7c4:	e8 05 09 00 00       	call   10ce <code+0x10ce>
     7c9:	83 c4 10             	add    esp,0x10
     7cc:	85 c0                	test   eax,eax
     7ce:	75 1a                	jne    7ea <code+0x7ea>
     7d0:	83 ec 08             	sub    esp,0x8
     7d3:	68 c0 40 00 00       	push   0x40c0
     7d8:	68 28 27 00 00       	push   0x2728
     7dd:	e8 7b 1d 00 00       	call   255d <code+0x255d>
     7e2:	83 c4 10             	add    esp,0x10
     7e5:	e9 a8 06 00 00       	jmp    e92 <code+0xe92>
     7ea:	83 ec 08             	sub    esp,0x8
     7ed:	68 2c 27 00 00       	push   0x272c
     7f2:	ff b4 24 1c 01 00 00 	push   DWORD PTR [esp+0x11c]
     7f9:	e8 d0 08 00 00       	call   10ce <code+0x10ce>
     7fe:	83 c4 10             	add    esp,0x10
     801:	85 c0                	test   eax,eax
     803:	75 0a                	jne    80f <code+0x80f>
     805:	e8 81 0d 00 00       	call   158b <code+0x158b>
     80a:	e9 83 06 00 00       	jmp    e92 <code+0xe92>
     80f:	83 ec 08             	sub    esp,0x8
     812:	68 33 27 00 00       	push   0x2733
     817:	ff b4 24 1c 01 00 00 	push   DWORD PTR [esp+0x11c]
     81e:	e8 ab 08 00 00       	call   10ce <code+0x10ce>
     823:	83 c4 10             	add    esp,0x10
     826:	85 c0                	test   eax,eax
     828:	0f 85 ba 00 00 00    	jne    8e8 <code+0x8e8>
     82e:	e8 1a 0c 00 00       	call   144d <code+0x144d>
     833:	89 84 24 d0 00 00 00 	mov    DWORD PTR [esp+0xd0],eax
     83a:	e8 c6 0b 00 00       	call   1405 <code+0x1405>
     83f:	e8 c1 0b 00 00       	call   1405 <code+0x1405>
     844:	e8 bc 0b 00 00       	call   1405 <code+0x1405>
     849:	e8 b7 0b 00 00       	call   1405 <code+0x1405>
     84e:	e8 b2 0b 00 00       	call   1405 <code+0x1405>
     853:	e8 ad 0b 00 00       	call   1405 <code+0x1405>
     858:	e8 a8 0b 00 00       	call   1405 <code+0x1405>
     85d:	e8 a3 0b 00 00       	call   1405 <code+0x1405>
     862:	e8 9e 0b 00 00       	call   1405 <code+0x1405>
     867:	66 a1 d8 28 00 00    	mov    ax,ds:0x28d8
     86d:	66 89 84 24 8e 00 00 	mov    WORD PTR [esp+0x8e],ax
     874:	00 
     875:	e8 d3 0b 00 00       	call   144d <code+0x144d>
     87a:	b9 18 00 00 00       	mov    ecx,0x18
     87f:	99                   	cdq    
     880:	f7 f9                	idiv   ecx
     882:	89 94 24 d4 00 00 00 	mov    DWORD PTR [esp+0xd4],edx
     889:	8a 84 24 8e 00 00 00 	mov    al,BYTE PTR [esp+0x8e]
     890:	88 c2                	mov    dl,al
     892:	8b 84 24 d4 00 00 00 	mov    eax,DWORD PTR [esp+0xd4]
     899:	8d 04 02             	lea    eax,[edx+eax*1]
     89c:	88 84 24 8e 00 00 00 	mov    BYTE PTR [esp+0x8e],al
     8a3:	c7 84 24 d8 00 00 00 	mov    DWORD PTR [esp+0xd8],0x0
     8aa:	00 00 00 00 
     8ae:	eb 07                	jmp    8b7 <code+0x8b7>
     8b0:	ff 84 24 d8 00 00 00 	inc    DWORD PTR [esp+0xd8]
     8b7:	81 bc 24 d8 00 00 00 	cmp    DWORD PTR [esp+0xd8],0x270f
     8be:	0f 27 00 00 
     8c2:	7e ec                	jle    8b0 <code+0x8b0>
     8c4:	e8 84 0b 00 00       	call   144d <code+0x144d>
     8c9:	3b 84 24 d0 00 00 00 	cmp    eax,DWORD PTR [esp+0xd0]
     8d0:	0f 84 bc 05 00 00    	je     e92 <code+0xe92>
     8d6:	83 ec 0c             	sub    esp,0xc
     8d9:	6a 00                	push   0x0
     8db:	e8 30 0b 00 00       	call   1410 <code+0x1410>
     8e0:	83 c4 10             	add    esp,0x10
     8e3:	e9 aa 05 00 00       	jmp    e92 <code+0xe92>
     8e8:	83 ec 08             	sub    esp,0x8
     8eb:	68 36 27 00 00       	push   0x2736
     8f0:	ff b4 24 1c 01 00 00 	push   DWORD PTR [esp+0x11c]
     8f7:	e8 d2 07 00 00       	call   10ce <code+0x10ce>
     8fc:	83 c4 10             	add    esp,0x10
     8ff:	85 c0                	test   eax,eax
     901:	75 36                	jne    939 <code+0x939>
     903:	c7 84 24 dc 00 00 00 	mov    DWORD PTR [esp+0xdc],0x0
     90a:	00 00 00 00 
     90e:	eb 17                	jmp    927 <code+0x927>
     910:	83 ec 0c             	sub    esp,0xc
     913:	68 3b 27 00 00       	push   0x273b
     918:	e8 40 1c 00 00       	call   255d <code+0x255d>
     91d:	83 c4 10             	add    esp,0x10
     920:	ff 84 24 dc 00 00 00 	inc    DWORD PTR [esp+0xdc]
     927:	81 bc 24 dc 00 00 00 	cmp    DWORD PTR [esp+0xdc],0x9c3f
     92e:	3f 9c 00 00 
     932:	7e dc                	jle    910 <code+0x910>
     934:	e9 59 05 00 00       	jmp    e92 <code+0xe92>
     939:	83 ec 08             	sub    esp,0x8
     93c:	68 3d 27 00 00       	push   0x273d
     941:	ff b4 24 1c 01 00 00 	push   DWORD PTR [esp+0x11c]
     948:	e8 81 07 00 00       	call   10ce <code+0x10ce>
     94d:	83 c4 10             	add    esp,0x10
     950:	85 c0                	test   eax,eax
     952:	75 63                	jne    9b7 <code+0x9b7>
     954:	83 ec 0c             	sub    esp,0xc
     957:	68 00 10 00 00       	push   0x1000
     95c:	e8 16 0a 00 00       	call   1377 <code+0x1377>
     961:	83 c4 10             	add    esp,0x10
     964:	89 84 24 e0 00 00 00 	mov    DWORD PTR [esp+0xe0],eax
     96b:	8b 84 24 e0 00 00 00 	mov    eax,DWORD PTR [esp+0xe0]
     972:	83 ec 08             	sub    esp,0x8
     975:	50                   	push   eax
     976:	68 41 27 00 00       	push   0x2741
     97b:	e8 dd 1b 00 00       	call   255d <code+0x255d>
     980:	83 c4 10             	add    esp,0x10
     983:	83 ec 0c             	sub    esp,0xc
     986:	68 58 27 00 00       	push   0x2758
     98b:	e8 cd 1b 00 00       	call   255d <code+0x255d>
     990:	83 c4 10             	add    esp,0x10
     993:	8b 84 24 e0 00 00 00 	mov    eax,DWORD PTR [esp+0xe0]
     99a:	05 ff 0f 00 00       	add    eax,0xfff
     99f:	c6 00 78             	mov    BYTE PTR [eax],0x78
     9a2:	83 ec 0c             	sub    esp,0xc
     9a5:	68 7a 27 00 00       	push   0x277a
     9aa:	e8 ae 1b 00 00       	call   255d <code+0x255d>
     9af:	83 c4 10             	add    esp,0x10
     9b2:	e9 db 04 00 00       	jmp    e92 <code+0xe92>
     9b7:	83 ec 08             	sub    esp,0x8
     9ba:	68 80 27 00 00       	push   0x2780
     9bf:	ff b4 24 1c 01 00 00 	push   DWORD PTR [esp+0x11c]
     9c6:	e8 03 07 00 00       	call   10ce <code+0x10ce>
     9cb:	83 c4 10             	add    esp,0x10
     9ce:	85 c0                	test   eax,eax
     9d0:	75 0a                	jne    9dc <code+0x9dc>
     9d2:	e8 c2 04 00 00       	call   e99 <code+0xe99>
     9d7:	e9 b6 04 00 00       	jmp    e92 <code+0xe92>
     9dc:	83 ec 08             	sub    esp,0x8
     9df:	68 85 27 00 00       	push   0x2785
     9e4:	ff b4 24 1c 01 00 00 	push   DWORD PTR [esp+0x11c]
     9eb:	e8 de 06 00 00       	call   10ce <code+0x10ce>
     9f0:	83 c4 10             	add    esp,0x10
     9f3:	85 c0                	test   eax,eax
     9f5:	75 1b                	jne    a12 <code+0xa12>
     9f7:	a1 28 43 00 00       	mov    eax,ds:0x4328
     9fc:	83 ec 08             	sub    esp,0x8
     9ff:	50                   	push   eax
     a00:	68 87 27 00 00       	push   0x2787
     a05:	e8 53 1b 00 00       	call   255d <code+0x255d>
     a0a:	83 c4 10             	add    esp,0x10
     a0d:	e9 80 04 00 00       	jmp    e92 <code+0xe92>
     a12:	83 ec 08             	sub    esp,0x8
     a15:	68 97 27 00 00       	push   0x2797
     a1a:	ff b4 24 1c 01 00 00 	push   DWORD PTR [esp+0x11c]
     a21:	e8 a8 06 00 00       	call   10ce <code+0x10ce>
     a26:	83 c4 10             	add    esp,0x10
     a29:	85 c0                	test   eax,eax
     a2b:	75 39                	jne    a66 <code+0xa66>
     a2d:	83 bc 24 c4 00 00 00 	cmp    DWORD PTR [esp+0xc4],0x2
     a34:	02 
     a35:	74 15                	je     a4c <code+0xa4c>
     a37:	83 ec 0c             	sub    esp,0xc
     a3a:	68 9c 27 00 00       	push   0x279c
     a3f:	e8 19 1b 00 00       	call   255d <code+0x255d>
     a44:	83 c4 10             	add    esp,0x10
     a47:	e9 46 04 00 00       	jmp    e92 <code+0xe92>
     a4c:	8b 84 24 94 00 00 00 	mov    eax,DWORD PTR [esp+0x94]
     a53:	83 ec 08             	sub    esp,0x8
     a56:	6a 00                	push   0x0
     a58:	50                   	push   eax
     a59:	e8 2f 0a 00 00       	call   148d <code+0x148d>
     a5e:	83 c4 10             	add    esp,0x10
     a61:	e9 2c 04 00 00       	jmp    e92 <code+0xe92>
     a66:	83 ec 08             	sub    esp,0x8
     a69:	68 b9 27 00 00       	push   0x27b9
     a6e:	ff b4 24 1c 01 00 00 	push   DWORD PTR [esp+0x11c]
     a75:	e8 54 06 00 00       	call   10ce <code+0x10ce>
     a7a:	83 c4 10             	add    esp,0x10
     a7d:	85 c0                	test   eax,eax
     a7f:	0f 85 0a 01 00 00    	jne    b8f <code+0xb8f>
     a85:	83 bc 24 c4 00 00 00 	cmp    DWORD PTR [esp+0xc4],0x2
     a8c:	02 
     a8d:	74 15                	je     aa4 <code+0xaa4>
     a8f:	83 ec 0c             	sub    esp,0xc
     a92:	68 be 27 00 00       	push   0x27be
     a97:	e8 c1 1a 00 00       	call   255d <code+0x255d>
     a9c:	83 c4 10             	add    esp,0x10
     a9f:	e9 ee 03 00 00       	jmp    e92 <code+0xe92>
     aa4:	c7 84 24 e4 00 00 00 	mov    DWORD PTR [esp+0xe4],0x0
     aab:	00 00 00 00 
     aaf:	c7 84 24 e8 00 00 00 	mov    DWORD PTR [esp+0xe8],0x0
     ab6:	00 00 00 00 
     aba:	c6 05 a4 43 00 00 00 	mov    BYTE PTR ds:0x43a4,0x0
     ac1:	8b 84 24 94 00 00 00 	mov    eax,DWORD PTR [esp+0x94]
     ac8:	83 ec 08             	sub    esp,0x8
     acb:	6a 00                	push   0x0
     acd:	50                   	push   eax
     ace:	e8 ab 0b 00 00       	call   167e <code+0x167e>
     ad3:	83 c4 10             	add    esp,0x10
     ad6:	89 84 24 ec 00 00 00 	mov    DWORD PTR [esp+0xec],eax
     add:	83 ec 08             	sub    esp,0x8
     ae0:	ff b4 24 f4 00 00 00 	push   DWORD PTR [esp+0xf4]
     ae7:	68 db 27 00 00       	push   0x27db
     aec:	e8 6c 1a 00 00       	call   255d <code+0x255d>
     af1:	83 c4 10             	add    esp,0x10
     af4:	83 bc 24 ec 00 00 00 	cmp    DWORD PTR [esp+0xec],0xffffffff
     afb:	ff 
     afc:	75 38                	jne    b36 <code+0xb36>
     afe:	8b 84 24 94 00 00 00 	mov    eax,DWORD PTR [esp+0x94]
     b05:	83 ec 08             	sub    esp,0x8
     b08:	50                   	push   eax
     b09:	68 ed 27 00 00       	push   0x27ed
     b0e:	e8 4a 1a 00 00       	call   255d <code+0x255d>
     b13:	83 c4 10             	add    esp,0x10
     b16:	eb 5b                	jmp    b73 <code+0xb73>
     b18:	8b 84 24 e8 00 00 00 	mov    eax,DWORD PTR [esp+0xe8]
     b1f:	c6 80 40 43 00 00 00 	mov    BYTE PTR [eax+0x4340],0x0
     b26:	8b 84 24 e8 00 00 00 	mov    eax,DWORD PTR [esp+0xe8]
     b2d:	01 84 24 e4 00 00 00 	add    DWORD PTR [esp+0xe4],eax
     b34:	eb 01                	jmp    b37 <code+0xb37>
     b36:	90                   	nop
     b37:	83 ec 04             	sub    esp,0x4
     b3a:	6a 64                	push   0x64
     b3c:	68 40 43 00 00       	push   0x4340
     b41:	ff b4 24 f8 00 00 00 	push   DWORD PTR [esp+0xf8]
     b48:	e8 69 0b 00 00       	call   16b6 <code+0x16b6>
     b4d:	83 c4 10             	add    esp,0x10
     b50:	89 84 24 e8 00 00 00 	mov    DWORD PTR [esp+0xe8],eax
     b57:	83 bc 24 e8 00 00 00 	cmp    DWORD PTR [esp+0xe8],0x0
     b5e:	00 
     b5f:	7f b7                	jg     b18 <code+0xb18>
     b61:	83 ec 0c             	sub    esp,0xc
     b64:	ff b4 24 f8 00 00 00 	push   DWORD PTR [esp+0xf8]
     b6b:	e8 37 0b 00 00       	call   16a7 <code+0x16a7>
     b70:	83 c4 10             	add    esp,0x10
     b73:	83 ec 08             	sub    esp,0x8
     b76:	ff b4 24 ec 00 00 00 	push   DWORD PTR [esp+0xec]
     b7d:	68 05 28 00 00       	push   0x2805
     b82:	e8 d6 19 00 00       	call   255d <code+0x255d>
     b87:	83 c4 10             	add    esp,0x10
     b8a:	e9 03 03 00 00       	jmp    e92 <code+0xe92>
     b8f:	83 ec 08             	sub    esp,0x8
     b92:	68 21 28 00 00       	push   0x2821
     b97:	ff b4 24 1c 01 00 00 	push   DWORD PTR [esp+0x11c]
     b9e:	e8 2b 05 00 00       	call   10ce <code+0x10ce>
     ba3:	83 c4 10             	add    esp,0x10
     ba6:	85 c0                	test   eax,eax
     ba8:	0f 85 d8 00 00 00    	jne    c86 <code+0xc86>
     bae:	83 bc 24 c4 00 00 00 	cmp    DWORD PTR [esp+0xc4],0x2
     bb5:	02 
     bb6:	7f 15                	jg     bcd <code+0xbcd>
     bb8:	83 ec 0c             	sub    esp,0xc
     bbb:	68 24 28 00 00       	push   0x2824
     bc0:	e8 98 19 00 00       	call   255d <code+0x255d>
     bc5:	83 c4 10             	add    esp,0x10
     bc8:	e9 c5 02 00 00       	jmp    e92 <code+0xe92>
     bcd:	8b 84 24 94 00 00 00 	mov    eax,DWORD PTR [esp+0x94]
     bd4:	83 ec 08             	sub    esp,0x8
     bd7:	68 45 28 00 00       	push   0x2845
     bdc:	50                   	push   eax
     bdd:	e8 ec 04 00 00       	call   10ce <code+0x10ce>
     be2:	83 c4 10             	add    esp,0x10
     be5:	85 c0                	test   eax,eax
     be7:	75 1f                	jne    c08 <code+0xc08>
     be9:	83 bc 24 c4 00 00 00 	cmp    DWORD PTR [esp+0xc4],0x3
     bf0:	03 
     bf1:	7f 15                	jg     c08 <code+0xc08>
     bf3:	83 ec 0c             	sub    esp,0xc
     bf6:	68 48 28 00 00       	push   0x2848
     bfb:	e8 5d 19 00 00       	call   255d <code+0x255d>
     c00:	83 c4 10             	add    esp,0x10
     c03:	e9 8a 02 00 00       	jmp    e92 <code+0xe92>
     c08:	8b 84 24 94 00 00 00 	mov    eax,DWORD PTR [esp+0x94]
     c0f:	83 ec 08             	sub    esp,0x8
     c12:	68 45 28 00 00       	push   0x2845
     c17:	50                   	push   eax
     c18:	e8 b1 04 00 00       	call   10ce <code+0x10ce>
     c1d:	83 c4 10             	add    esp,0x10
     c20:	85 c0                	test   eax,eax
     c22:	75 31                	jne    c55 <code+0xc55>
     c24:	8b 94 24 9c 00 00 00 	mov    edx,DWORD PTR [esp+0x9c]
     c2b:	8b 84 24 98 00 00 00 	mov    eax,DWORD PTR [esp+0x98]
     c32:	83 ec 08             	sub    esp,0x8
     c35:	52                   	push   edx
     c36:	50                   	push   eax
     c37:	e8 5c 0b 00 00       	call   1798 <code+0x1798>
     c3c:	83 c4 10             	add    esp,0x10
     c3f:	83 ec 08             	sub    esp,0x8
     c42:	50                   	push   eax
     c43:	68 67 28 00 00       	push   0x2867
     c48:	e8 10 19 00 00       	call   255d <code+0x255d>
     c4d:	83 c4 10             	add    esp,0x10
     c50:	e9 3d 02 00 00       	jmp    e92 <code+0xe92>
     c55:	8b 94 24 98 00 00 00 	mov    edx,DWORD PTR [esp+0x98]
     c5c:	8b 84 24 94 00 00 00 	mov    eax,DWORD PTR [esp+0x94]
     c63:	83 ec 08             	sub    esp,0x8
     c66:	52                   	push   edx
     c67:	50                   	push   eax
     c68:	e8 06 0b 00 00       	call   1773 <code+0x1773>
     c6d:	83 c4 10             	add    esp,0x10
     c70:	83 ec 08             	sub    esp,0x8
     c73:	50                   	push   eax
     c74:	68 7d 28 00 00       	push   0x287d
     c79:	e8 df 18 00 00       	call   255d <code+0x255d>
     c7e:	83 c4 10             	add    esp,0x10
     c81:	e9 0c 02 00 00       	jmp    e92 <code+0xe92>
     c86:	83 ec 08             	sub    esp,0x8
     c89:	68 90 28 00 00       	push   0x2890
     c8e:	ff b4 24 1c 01 00 00 	push   DWORD PTR [esp+0x11c]
     c95:	e8 34 04 00 00       	call   10ce <code+0x10ce>
     c9a:	83 c4 10             	add    esp,0x10
     c9d:	85 c0                	test   eax,eax
     c9f:	0f 85 8e 00 00 00    	jne    d33 <code+0xd33>
     ca5:	8b 84 24 94 00 00 00 	mov    eax,DWORD PTR [esp+0x94]
     cac:	83 ec 08             	sub    esp,0x8
     caf:	6a 00                	push   0x0
     cb1:	50                   	push   eax
     cb2:	e8 c7 09 00 00       	call   167e <code+0x167e>
     cb7:	83 c4 10             	add    esp,0x10
     cba:	89 84 24 f4 00 00 00 	mov    DWORD PTR [esp+0xf4],eax
     cc1:	83 bc 24 f4 00 00 00 	cmp    DWORD PTR [esp+0xf4],0xffffffff
     cc8:	ff 
     cc9:	75 15                	jne    ce0 <code+0xce0>
     ccb:	83 ec 0c             	sub    esp,0xc
     cce:	68 95 28 00 00       	push   0x2895
     cd3:	e8 85 18 00 00       	call   255d <code+0x255d>
     cd8:	83 c4 10             	add    esp,0x10
     cdb:	e9 b2 01 00 00       	jmp    e92 <code+0xe92>
     ce0:	83 ec 04             	sub    esp,0x4
     ce3:	6a 64                	push   0x64
     ce5:	68 40 43 00 00       	push   0x4340
     cea:	ff b4 24 00 01 00 00 	push   DWORD PTR [esp+0x100]
     cf1:	e8 c0 09 00 00       	call   16b6 <code+0x16b6>
     cf6:	83 c4 10             	add    esp,0x10
     cf9:	89 84 24 f0 00 00 00 	mov    DWORD PTR [esp+0xf0],eax
     d00:	83 ec 04             	sub    esp,0x4
     d03:	68 40 43 00 00       	push   0x4340
     d08:	ff b4 24 f8 00 00 00 	push   DWORD PTR [esp+0xf8]
     d0f:	68 a5 28 00 00       	push   0x28a5
     d14:	e8 44 18 00 00       	call   255d <code+0x255d>
     d19:	83 c4 10             	add    esp,0x10
     d1c:	83 ec 0c             	sub    esp,0xc
     d1f:	ff b4 24 00 01 00 00 	push   DWORD PTR [esp+0x100]
     d26:	e8 7c 09 00 00       	call   16a7 <code+0x16a7>
     d2b:	83 c4 10             	add    esp,0x10
     d2e:	e9 5f 01 00 00       	jmp    e92 <code+0xe92>
     d33:	e8 cd 06 00 00       	call   1405 <code+0x1405>
     d38:	89 84 24 f8 00 00 00 	mov    DWORD PTR [esp+0xf8],eax
     d3f:	83 bc 24 f8 00 00 00 	cmp    DWORD PTR [esp+0xf8],0x0
     d46:	00 
     d47:	74 1e                	je     d67 <code+0xd67>
     d49:	83 ec 04             	sub    esp,0x4
     d4c:	6a 00                	push   0x0
     d4e:	68 28 43 00 00       	push   0x4328
     d53:	ff b4 24 04 01 00 00 	push   DWORD PTR [esp+0x104]
     d5a:	e8 c0 06 00 00       	call   141f <code+0x141f>
     d5f:	83 c4 10             	add    esp,0x10
     d62:	e9 2b 01 00 00       	jmp    e92 <code+0xe92>
     d67:	83 bc 24 b8 00 00 00 	cmp    DWORD PTR [esp+0xb8],0x0
     d6e:	00 
     d6f:	74 24                	je     d95 <code+0xd95>
     d71:	83 ec 0c             	sub    esp,0xc
     d74:	6a 01                	push   0x1
     d76:	e8 2c 09 00 00       	call   16a7 <code+0x16a7>
     d7b:	83 c4 10             	add    esp,0x10
     d7e:	83 ec 08             	sub    esp,0x8
     d81:	68 01 02 00 00       	push   0x201
     d86:	ff b4 24 c4 00 00 00 	push   DWORD PTR [esp+0xc4]
     d8d:	e8 ec 08 00 00       	call   167e <code+0x167e>
     d92:	83 c4 10             	add    esp,0x10
     d95:	83 bc 24 bc 00 00 00 	cmp    DWORD PTR [esp+0xbc],0x0
     d9c:	00 
     d9d:	74 24                	je     dc3 <code+0xdc3>
     d9f:	83 ec 0c             	sub    esp,0xc
     da2:	6a 02                	push   0x2
     da4:	e8 fe 08 00 00       	call   16a7 <code+0x16a7>
     da9:	83 c4 10             	add    esp,0x10
     dac:	83 ec 08             	sub    esp,0x8
     daf:	68 01 02 00 00       	push   0x201
     db4:	ff b4 24 c8 00 00 00 	push   DWORD PTR [esp+0xc8]
     dbb:	e8 be 08 00 00       	call   167e <code+0x167e>
     dc0:	83 c4 10             	add    esp,0x10
     dc3:	83 bc 24 c0 00 00 00 	cmp    DWORD PTR [esp+0xc0],0x0
     dca:	00 
     dcb:	74 21                	je     dee <code+0xdee>
     dcd:	83 ec 0c             	sub    esp,0xc
     dd0:	6a 00                	push   0x0
     dd2:	e8 d0 08 00 00       	call   16a7 <code+0x16a7>
     dd7:	83 c4 10             	add    esp,0x10
     dda:	83 ec 08             	sub    esp,0x8
     ddd:	6a 00                	push   0x0
     ddf:	ff b4 24 cc 00 00 00 	push   DWORD PTR [esp+0xcc]
     de6:	e8 93 08 00 00       	call   167e <code+0x167e>
     deb:	83 c4 10             	add    esp,0x10
     dee:	8b 84 24 c4 00 00 00 	mov    eax,DWORD PTR [esp+0xc4]
     df5:	c7 84 84 90 00 00 00 	mov    DWORD PTR [esp+eax*4+0x90],0x0
     dfc:	00 00 00 00 
     e00:	8b 84 24 90 00 00 00 	mov    eax,DWORD PTR [esp+0x90]
     e07:	83 ec 08             	sub    esp,0x8
     e0a:	8d 94 24 98 00 00 00 	lea    edx,[esp+0x98]
     e11:	52                   	push   edx
     e12:	50                   	push   eax
     e13:	e8 75 06 00 00       	call   148d <code+0x148d>
     e18:	83 c4 10             	add    esp,0x10
     e1b:	83 ec 04             	sub    esp,0x4
     e1e:	6a 05                	push   0x5
     e20:	68 b4 28 00 00       	push   0x28b4
     e25:	8d 44 24 1a          	lea    eax,[esp+0x1a]
     e29:	50                   	push   eax
     e2a:	e8 be 03 00 00       	call   11ed <code+0x11ed>
     e2f:	83 c4 10             	add    esp,0x10
     e32:	8b 84 24 90 00 00 00 	mov    eax,DWORD PTR [esp+0x90]
     e39:	83 ec 04             	sub    esp,0x4
     e3c:	6a 7b                	push   0x7b
     e3e:	50                   	push   eax
     e3f:	8d 44 24 1a          	lea    eax,[esp+0x1a]
     e43:	83 c0 05             	add    eax,0x5
     e46:	50                   	push   eax
     e47:	e8 a1 03 00 00       	call   11ed <code+0x11ed>
     e4c:	83 c4 10             	add    esp,0x10
     e4f:	83 ec 08             	sub    esp,0x8
     e52:	8d 84 24 98 00 00 00 	lea    eax,[esp+0x98]
     e59:	50                   	push   eax
     e5a:	8d 44 24 1a          	lea    eax,[esp+0x1a]
     e5e:	50                   	push   eax
     e5f:	e8 29 06 00 00       	call   148d <code+0x148d>
     e64:	83 c4 10             	add    esp,0x10
     e67:	83 ec 08             	sub    esp,0x8
     e6a:	8d 44 24 16          	lea    eax,[esp+0x16]
     e6e:	50                   	push   eax
     e6f:	68 ba 28 00 00       	push   0x28ba
     e74:	e8 e4 16 00 00       	call   255d <code+0x255d>
     e79:	83 c4 10             	add    esp,0x10
     e7c:	83 ec 0c             	sub    esp,0xc
     e7f:	6a 00                	push   0x0
     e81:	e8 8a 05 00 00       	call   1410 <code+0x1410>
     e86:	83 c4 10             	add    esp,0x10
     e89:	eb 07                	jmp    e92 <code+0xe92>
     e8b:	90                   	nop
     e8c:	eb 04                	jmp    e92 <code+0xe92>
     e8e:	90                   	nop
     e8f:	eb 01                	jmp    e92 <code+0xe92>
     e91:	90                   	nop
     e92:	81 c4 0c 01 00 00    	add    esp,0x10c
     e98:	c3                   	ret    
     e99:	83 ec 0c             	sub    esp,0xc
     e9c:	83 ec 08             	sub    esp,0x8
     e9f:	68 dc 28 00 00       	push   0x28dc
     ea4:	68 2c 29 00 00       	push   0x292c
     ea9:	e8 af 16 00 00       	call   255d <code+0x255d>
     eae:	83 c4 10             	add    esp,0x10
     eb1:	83 ec 0c             	sub    esp,0xc
     eb4:	68 54 29 00 00       	push   0x2954
     eb9:	e8 9f 16 00 00       	call   255d <code+0x255d>
     ebe:	83 c4 10             	add    esp,0x10
     ec1:	83 c4 0c             	add    esp,0xc
     ec4:	c3                   	ret    
     ec5:	00 00                	add    BYTE PTR [eax],al
     ec7:	00 81 ec 1c 01 00    	add    BYTE PTR [ecx+0x11cec],al
     ecd:	00 83 ec 0c ff b4    	add    BYTE PTR [ebx-0x4b00f314],al
     ed3:	24 2c                	and    al,0x2c
     ed5:	01 00                	add    DWORD PTR [eax],eax
     ed7:	00 e8                	add    al,ch
     ed9:	ca 01 00             	retf   0x1
     edc:	00 83 c4 10 83 f8    	add    BYTE PTR [ebx-0x77cef3c],al
     ee2:	01 75 44             	add    DWORD PTR [ebp+0x44],esi
     ee5:	8b 84 24 20 01 00 00 	mov    eax,DWORD PTR [esp+0x120]
     eec:	8a 00                	mov    al,BYTE PTR [eax]
     eee:	3c 2f                	cmp    al,0x2f
     ef0:	75 37                	jne    f29 <code+0xf29>
     ef2:	83 ec 04             	sub    esp,0x4
     ef5:	6a 01                	push   0x1
     ef7:	68 a0 29 00 00       	push   0x29a0
     efc:	ff b4 24 30 01 00 00 	push   DWORD PTR [esp+0x130]
     f03:	e8 e5 02 00 00       	call   11ed <code+0x11ed>
     f08:	83 c4 10             	add    esp,0x10
     f0b:	83 ec 04             	sub    esp,0x4
     f0e:	6a 01                	push   0x1
     f10:	68 a0 29 00 00       	push   0x29a0
     f15:	ff b4 24 34 01 00 00 	push   DWORD PTR [esp+0x134]
     f1c:	e8 cc 02 00 00       	call   11ed <code+0x11ed>
     f21:	83 c4 10             	add    esp,0x10
     f24:	e9 2d 01 00 00       	jmp    1056 <code+0x1056>
     f29:	83 ec 04             	sub    esp,0x4
     f2c:	68 00 01 00 00       	push   0x100
     f31:	ff b4 24 28 01 00 00 	push   DWORD PTR [esp+0x128]
     f38:	8d 44 24 18          	lea    eax,[esp+0x18]
     f3c:	50                   	push   eax
     f3d:	e8 ab 02 00 00       	call   11ed <code+0x11ed>
     f42:	83 c4 10             	add    esp,0x10
     f45:	83 ec 0c             	sub    esp,0xc
     f48:	8d 44 24 18          	lea    eax,[esp+0x18]
     f4c:	50                   	push   eax
     f4d:	e8 55 01 00 00       	call   10a7 <code+0x10a7>
     f52:	83 c4 10             	add    esp,0x10
     f55:	48                   	dec    eax
     f56:	89 84 24 0c 01 00 00 	mov    DWORD PTR [esp+0x10c],eax
     f5d:	8b 84 24 0c 01 00 00 	mov    eax,DWORD PTR [esp+0x10c]
     f64:	8a 44 04 0c          	mov    al,BYTE PTR [esp+eax*1+0xc]
     f68:	3c 2f                	cmp    al,0x2f
     f6a:	75 16                	jne    f82 <code+0xf82>
     f6c:	8b 84 24 0c 01 00 00 	mov    eax,DWORD PTR [esp+0x10c]
     f73:	c6 44 04 0c 00       	mov    BYTE PTR [esp+eax*1+0xc],0x0
     f78:	ff 8c 24 0c 01 00 00 	dec    DWORD PTR [esp+0x10c]
     f7f:	eb 01                	jmp    f82 <code+0xf82>
     f81:	90                   	nop
     f82:	ff 8c 24 0c 01 00 00 	dec    DWORD PTR [esp+0x10c]
     f89:	83 bc 24 0c 01 00 00 	cmp    DWORD PTR [esp+0x10c],0xffffffff
     f90:	ff 
     f91:	75 3a                	jne    fcd <code+0xfcd>
     f93:	83 ec 04             	sub    esp,0x4
     f96:	6a 02                	push   0x2
     f98:	68 a2 29 00 00       	push   0x29a2
     f9d:	ff b4 24 30 01 00 00 	push   DWORD PTR [esp+0x130]
     fa4:	e8 44 02 00 00       	call   11ed <code+0x11ed>
     fa9:	83 c4 10             	add    esp,0x10
     fac:	83 ec 04             	sub    esp,0x4
     faf:	68 00 01 00 00       	push   0x100
     fb4:	8d 44 24 14          	lea    eax,[esp+0x14]
     fb8:	50                   	push   eax
     fb9:	ff b4 24 34 01 00 00 	push   DWORD PTR [esp+0x134]
     fc0:	e8 28 02 00 00       	call   11ed <code+0x11ed>
     fc5:	83 c4 10             	add    esp,0x10
     fc8:	e9 89 00 00 00       	jmp    1056 <code+0x1056>
     fcd:	8b 84 24 0c 01 00 00 	mov    eax,DWORD PTR [esp+0x10c]
     fd4:	8a 44 04 0c          	mov    al,BYTE PTR [esp+eax*1+0xc]
     fd8:	3c 2f                	cmp    al,0x2f
     fda:	75 a5                	jne    f81 <code+0xf81>
     fdc:	83 bc 24 0c 01 00 00 	cmp    DWORD PTR [esp+0x10c],0x0
     fe3:	00 
     fe4:	75 1b                	jne    1001 <code+0x1001>
     fe6:	83 ec 04             	sub    esp,0x4
     fe9:	6a 02                	push   0x2
     feb:	68 a0 29 00 00       	push   0x29a0
     ff0:	ff b4 24 30 01 00 00 	push   DWORD PTR [esp+0x130]
     ff7:	e8 f1 01 00 00       	call   11ed <code+0x11ed>
     ffc:	83 c4 10             	add    esp,0x10
     fff:	eb 2f                	jmp    1030 <code+0x1030>
    1001:	83 ec 04             	sub    esp,0x4
    1004:	ff b4 24 10 01 00 00 	push   DWORD PTR [esp+0x110]
    100b:	8d 44 24 14          	lea    eax,[esp+0x14]
    100f:	50                   	push   eax
    1010:	ff b4 24 30 01 00 00 	push   DWORD PTR [esp+0x130]
    1017:	e8 b4 02 00 00       	call   12d0 <code+0x12d0>
    101c:	83 c4 10             	add    esp,0x10
    101f:	8b 84 24 0c 01 00 00 	mov    eax,DWORD PTR [esp+0x10c]
    1026:	03 84 24 24 01 00 00 	add    eax,DWORD PTR [esp+0x124]
    102d:	c6 00 00             	mov    BYTE PTR [eax],0x0
    1030:	8b 84 24 0c 01 00 00 	mov    eax,DWORD PTR [esp+0x10c]
    1037:	8d 50 01             	lea    edx,[eax+0x1]
    103a:	8d 44 24 0c          	lea    eax,[esp+0xc]
    103e:	01 d0                	add    eax,edx
    1040:	83 ec 04             	sub    esp,0x4
    1043:	6a 1e                	push   0x1e
    1045:	50                   	push   eax
    1046:	ff b4 24 34 01 00 00 	push   DWORD PTR [esp+0x134]
    104d:	e8 9b 01 00 00       	call   11ed <code+0x11ed>
    1052:	83 c4 10             	add    esp,0x10
    1055:	90                   	nop
    1056:	81 c4 1c 01 00 00    	add    esp,0x11c
    105c:	c3                   	ret    
    105d:	83 ec 0c             	sub    esp,0xc
    1060:	83 ec 04             	sub    esp,0x4
    1063:	68 60 4d 00 00       	push   0x4d60
    1068:	68 60 4c 00 00       	push   0x4c60
    106d:	ff 74 24 1c          	push   DWORD PTR [esp+0x1c]
    1071:	e8 52 fe ff ff       	call   ec8 <code+0xec8>
    1076:	83 c4 10             	add    esp,0x10
    1079:	b8 60 4d 00 00       	mov    eax,0x4d60
    107e:	83 c4 0c             	add    esp,0xc
    1081:	c3                   	ret    
    1082:	83 ec 0c             	sub    esp,0xc
    1085:	83 ec 04             	sub    esp,0x4
    1088:	68 40 4c 00 00       	push   0x4c40
    108d:	68 40 4b 00 00       	push   0x4b40
    1092:	ff 74 24 1c          	push   DWORD PTR [esp+0x1c]
    1096:	e8 2d fe ff ff       	call   ec8 <code+0xec8>
    109b:	83 c4 10             	add    esp,0x10
    109e:	b8 40 4b 00 00       	mov    eax,0x4b40
    10a3:	83 c4 0c             	add    esp,0xc
    10a6:	c3                   	ret    
    10a7:	83 ec 10             	sub    esp,0x10
    10aa:	c7 44 24 0c 00 00 00 	mov    DWORD PTR [esp+0xc],0x0
    10b1:	00 
    10b2:	eb 08                	jmp    10bc <code+0x10bc>
    10b4:	ff 44 24 0c          	inc    DWORD PTR [esp+0xc]
    10b8:	ff 44 24 14          	inc    DWORD PTR [esp+0x14]
    10bc:	8b 44 24 14          	mov    eax,DWORD PTR [esp+0x14]
    10c0:	8a 00                	mov    al,BYTE PTR [eax]
    10c2:	84 c0                	test   al,al
    10c4:	75 ee                	jne    10b4 <code+0x10b4>
    10c6:	8b 44 24 0c          	mov    eax,DWORD PTR [esp+0xc]
    10ca:	83 c4 10             	add    esp,0x10
    10cd:	c3                   	ret    
    10ce:	83 ec 10             	sub    esp,0x10
    10d1:	eb 08                	jmp    10db <code+0x10db>
    10d3:	ff 44 24 14          	inc    DWORD PTR [esp+0x14]
    10d7:	ff 44 24 18          	inc    DWORD PTR [esp+0x18]
    10db:	8b 44 24 14          	mov    eax,DWORD PTR [esp+0x14]
    10df:	8a 00                	mov    al,BYTE PTR [eax]
    10e1:	84 c0                	test   al,al
    10e3:	74 10                	je     10f5 <code+0x10f5>
    10e5:	8b 44 24 14          	mov    eax,DWORD PTR [esp+0x14]
    10e9:	8a 10                	mov    dl,BYTE PTR [eax]
    10eb:	8b 44 24 18          	mov    eax,DWORD PTR [esp+0x18]
    10ef:	8a 00                	mov    al,BYTE PTR [eax]
    10f1:	38 c2                	cmp    dl,al
    10f3:	74 de                	je     10d3 <code+0x10d3>
    10f5:	8b 44 24 14          	mov    eax,DWORD PTR [esp+0x14]
    10f9:	8a 00                	mov    al,BYTE PTR [eax]
    10fb:	88 44 24 0e          	mov    BYTE PTR [esp+0xe],al
    10ff:	8b 44 24 18          	mov    eax,DWORD PTR [esp+0x18]
    1103:	8a 00                	mov    al,BYTE PTR [eax]
    1105:	88 44 24 0f          	mov    BYTE PTR [esp+0xf],al
    1109:	8a 44 24 0e          	mov    al,BYTE PTR [esp+0xe]
    110d:	3a 44 24 0f          	cmp    al,BYTE PTR [esp+0xf]
    1111:	72 10                	jb     1123 <code+0x1123>
    1113:	8a 44 24 0e          	mov    al,BYTE PTR [esp+0xe]
    1117:	3a 44 24 0f          	cmp    al,BYTE PTR [esp+0xf]
    111b:	0f 97 c0             	seta   al
    111e:	0f b6 c0             	movzx  eax,al
    1121:	eb 05                	jmp    1128 <code+0x1128>
    1123:	b8 ff ff ff ff       	mov    eax,0xffffffff
    1128:	83 c4 10             	add    esp,0x10
    112b:	c3                   	ret    
    112c:	83 ec 10             	sub    esp,0x10
    112f:	83 7c 24 1c 00       	cmp    DWORD PTR [esp+0x1c],0x0
    1134:	75 29                	jne    115f <code+0x115f>
    1136:	b8 00 00 00 00       	mov    eax,0x0
    113b:	eb 76                	jmp    11b3 <code+0x11b3>
    113d:	83 7c 24 1c 00       	cmp    DWORD PTR [esp+0x1c],0x0
    1142:	74 0a                	je     114e <code+0x114e>
    1144:	8b 44 24 14          	mov    eax,DWORD PTR [esp+0x14]
    1148:	8a 00                	mov    al,BYTE PTR [eax]
    114a:	84 c0                	test   al,al
    114c:	75 07                	jne    1155 <code+0x1155>
    114e:	b8 00 00 00 00       	mov    eax,0x0
    1153:	eb 5e                	jmp    11b3 <code+0x11b3>
    1155:	ff 44 24 14          	inc    DWORD PTR [esp+0x14]
    1159:	ff 44 24 18          	inc    DWORD PTR [esp+0x18]
    115d:	eb 01                	jmp    1160 <code+0x1160>
    115f:	90                   	nop
    1160:	83 7c 24 1c 00       	cmp    DWORD PTR [esp+0x1c],0x0
    1165:	0f 95 c0             	setne  al
    1168:	ff 4c 24 1c          	dec    DWORD PTR [esp+0x1c]
    116c:	84 c0                	test   al,al
    116e:	74 10                	je     1180 <code+0x1180>
    1170:	8b 44 24 14          	mov    eax,DWORD PTR [esp+0x14]
    1174:	8a 10                	mov    dl,BYTE PTR [eax]
    1176:	8b 44 24 18          	mov    eax,DWORD PTR [esp+0x18]
    117a:	8a 00                	mov    al,BYTE PTR [eax]
    117c:	38 c2                	cmp    dl,al
    117e:	74 bd                	je     113d <code+0x113d>
    1180:	8b 44 24 14          	mov    eax,DWORD PTR [esp+0x14]
    1184:	8a 00                	mov    al,BYTE PTR [eax]
    1186:	88 44 24 0e          	mov    BYTE PTR [esp+0xe],al
    118a:	8b 44 24 18          	mov    eax,DWORD PTR [esp+0x18]
    118e:	8a 00                	mov    al,BYTE PTR [eax]
    1190:	88 44 24 0f          	mov    BYTE PTR [esp+0xf],al
    1194:	8a 44 24 0e          	mov    al,BYTE PTR [esp+0xe]
    1198:	3a 44 24 0f          	cmp    al,BYTE PTR [esp+0xf]
    119c:	72 10                	jb     11ae <code+0x11ae>
    119e:	8a 44 24 0e          	mov    al,BYTE PTR [esp+0xe]
    11a2:	3a 44 24 0f          	cmp    al,BYTE PTR [esp+0xf]
    11a6:	0f 97 c0             	seta   al
    11a9:	0f b6 c0             	movzx  eax,al
    11ac:	eb 05                	jmp    11b3 <code+0x11b3>
    11ae:	b8 ff ff ff ff       	mov    eax,0xffffffff
    11b3:	83 c4 10             	add    esp,0x10
    11b6:	c3                   	ret    
    11b7:	83 ec 10             	sub    esp,0x10
    11ba:	8b 44 24 14          	mov    eax,DWORD PTR [esp+0x14]
    11be:	89 44 24 0c          	mov    DWORD PTR [esp+0xc],eax
    11c2:	8b 44 24 18          	mov    eax,DWORD PTR [esp+0x18]
    11c6:	8a 10                	mov    dl,BYTE PTR [eax]
    11c8:	8b 44 24 14          	mov    eax,DWORD PTR [esp+0x14]
    11cc:	88 10                	mov    BYTE PTR [eax],dl
    11ce:	8b 44 24 14          	mov    eax,DWORD PTR [esp+0x14]
    11d2:	8a 00                	mov    al,BYTE PTR [eax]
    11d4:	84 c0                	test   al,al
    11d6:	0f 95 c0             	setne  al
    11d9:	ff 44 24 14          	inc    DWORD PTR [esp+0x14]
    11dd:	ff 44 24 18          	inc    DWORD PTR [esp+0x18]
    11e1:	84 c0                	test   al,al
    11e3:	75 dd                	jne    11c2 <code+0x11c2>
    11e5:	8b 44 24 0c          	mov    eax,DWORD PTR [esp+0xc]
    11e9:	83 c4 10             	add    esp,0x10
    11ec:	c3                   	ret    
    11ed:	83 ec 10             	sub    esp,0x10
    11f0:	8b 44 24 18          	mov    eax,DWORD PTR [esp+0x18]
    11f4:	89 44 24 08          	mov    DWORD PTR [esp+0x8],eax
    11f8:	8b 44 24 14          	mov    eax,DWORD PTR [esp+0x14]
    11fc:	89 44 24 0c          	mov    DWORD PTR [esp+0xc],eax
    1200:	eb 22                	jmp    1224 <code+0x1224>
    1202:	8b 44 24 08          	mov    eax,DWORD PTR [esp+0x8]
    1206:	8a 10                	mov    dl,BYTE PTR [eax]
    1208:	8b 44 24 0c          	mov    eax,DWORD PTR [esp+0xc]
    120c:	88 10                	mov    BYTE PTR [eax],dl
    120e:	8b 44 24 0c          	mov    eax,DWORD PTR [esp+0xc]
    1212:	8a 00                	mov    al,BYTE PTR [eax]
    1214:	84 c0                	test   al,al
    1216:	74 15                	je     122d <code+0x122d>
    1218:	ff 44 24 0c          	inc    DWORD PTR [esp+0xc]
    121c:	ff 44 24 08          	inc    DWORD PTR [esp+0x8]
    1220:	ff 4c 24 1c          	dec    DWORD PTR [esp+0x1c]
    1224:	83 7c 24 1c 00       	cmp    DWORD PTR [esp+0x1c],0x0
    1229:	75 d7                	jne    1202 <code+0x1202>
    122b:	eb 01                	jmp    122e <code+0x122e>
    122d:	90                   	nop
    122e:	8b 44 24 14          	mov    eax,DWORD PTR [esp+0x14]
    1232:	83 c4 10             	add    esp,0x10
    1235:	c3                   	ret    
    1236:	83 ec 10             	sub    esp,0x10
    1239:	c7 44 24 0c 00 00 00 	mov    DWORD PTR [esp+0xc],0x0
    1240:	00 
    1241:	eb 26                	jmp    1269 <code+0x1269>
    1243:	8b 54 24 0c          	mov    edx,DWORD PTR [esp+0xc]
    1247:	89 d0                	mov    eax,edx
    1249:	c1 e0 02             	shl    eax,0x2
    124c:	01 d0                	add    eax,edx
    124e:	d1 e0                	shl    eax,1
    1250:	89 c2                	mov    edx,eax
    1252:	8b 44 24 14          	mov    eax,DWORD PTR [esp+0x14]
    1256:	8a 00                	mov    al,BYTE PTR [eax]
    1258:	0f be c0             	movsx  eax,al
    125b:	83 e8 30             	sub    eax,0x30
    125e:	8d 04 02             	lea    eax,[edx+eax*1]
    1261:	89 44 24 0c          	mov    DWORD PTR [esp+0xc],eax
    1265:	ff 44 24 14          	inc    DWORD PTR [esp+0x14]
    1269:	8b 44 24 14          	mov    eax,DWORD PTR [esp+0x14]
    126d:	8a 00                	mov    al,BYTE PTR [eax]
    126f:	3c 2f                	cmp    al,0x2f
    1271:	7e 0a                	jle    127d <code+0x127d>
    1273:	8b 44 24 14          	mov    eax,DWORD PTR [esp+0x14]
    1277:	8a 00                	mov    al,BYTE PTR [eax]
    1279:	3c 39                	cmp    al,0x39
    127b:	7e c6                	jle    1243 <code+0x1243>
    127d:	8b 44 24 0c          	mov    eax,DWORD PTR [esp+0xc]
    1281:	83 c4 10             	add    esp,0x10
    1284:	c3                   	ret    
    1285:	83 ec 10             	sub    esp,0x10
    1288:	c7 44 24 0c 00 00 00 	mov    DWORD PTR [esp+0xc],0x0
    128f:	00 
    1290:	eb 22                	jmp    12b4 <code+0x12b4>
    1292:	8b 44 24 0c          	mov    eax,DWORD PTR [esp+0xc]
    1296:	8d 14 c5 00 00 00 00 	lea    edx,[eax*8+0x0]
    129d:	8b 44 24 14          	mov    eax,DWORD PTR [esp+0x14]
    12a1:	8a 00                	mov    al,BYTE PTR [eax]
    12a3:	0f be c0             	movsx  eax,al
    12a6:	83 e8 30             	sub    eax,0x30
    12a9:	8d 04 02             	lea    eax,[edx+eax*1]
    12ac:	89 44 24 0c          	mov    DWORD PTR [esp+0xc],eax
    12b0:	ff 44 24 14          	inc    DWORD PTR [esp+0x14]
    12b4:	8b 44 24 14          	mov    eax,DWORD PTR [esp+0x14]
    12b8:	8a 00                	mov    al,BYTE PTR [eax]
    12ba:	3c 2f                	cmp    al,0x2f
    12bc:	7e 0a                	jle    12c8 <code+0x12c8>
    12be:	8b 44 24 14          	mov    eax,DWORD PTR [esp+0x14]
    12c2:	8a 00                	mov    al,BYTE PTR [eax]
    12c4:	3c 37                	cmp    al,0x37
    12c6:	7e ca                	jle    1292 <code+0x1292>
    12c8:	8b 44 24 0c          	mov    eax,DWORD PTR [esp+0xc]
    12cc:	83 c4 10             	add    esp,0x10
    12cf:	c3                   	ret    
    12d0:	83 ec 10             	sub    esp,0x10
    12d3:	8b 44 24 18          	mov    eax,DWORD PTR [esp+0x18]
    12d7:	89 44 24 08          	mov    DWORD PTR [esp+0x8],eax
    12db:	8b 44 24 14          	mov    eax,DWORD PTR [esp+0x14]
    12df:	89 44 24 0c          	mov    DWORD PTR [esp+0xc],eax
    12e3:	eb 18                	jmp    12fd <code+0x12fd>
    12e5:	8b 44 24 08          	mov    eax,DWORD PTR [esp+0x8]
    12e9:	8a 10                	mov    dl,BYTE PTR [eax]
    12eb:	8b 44 24 0c          	mov    eax,DWORD PTR [esp+0xc]
    12ef:	88 10                	mov    BYTE PTR [eax],dl
    12f1:	ff 44 24 0c          	inc    DWORD PTR [esp+0xc]
    12f5:	ff 44 24 08          	inc    DWORD PTR [esp+0x8]
    12f9:	ff 4c 24 1c          	dec    DWORD PTR [esp+0x1c]
    12fd:	83 7c 24 1c 00       	cmp    DWORD PTR [esp+0x1c],0x0
    1302:	75 e1                	jne    12e5 <code+0x12e5>
    1304:	8b 44 24 14          	mov    eax,DWORD PTR [esp+0x14]
    1308:	83 c4 10             	add    esp,0x10
    130b:	c3                   	ret    
    130c:	83 ec 14             	sub    esp,0x14
    130f:	8b 44 24 1c          	mov    eax,DWORD PTR [esp+0x1c]
    1313:	88 04 24             	mov    BYTE PTR [esp],al
    1316:	8b 44 24 18          	mov    eax,DWORD PTR [esp+0x18]
    131a:	89 44 24 10          	mov    DWORD PTR [esp+0x10],eax
    131e:	eb 11                	jmp    1331 <code+0x1331>
    1320:	8b 44 24 10          	mov    eax,DWORD PTR [esp+0x10]
    1324:	8a 14 24             	mov    dl,BYTE PTR [esp]
    1327:	88 10                	mov    BYTE PTR [eax],dl
    1329:	ff 44 24 10          	inc    DWORD PTR [esp+0x10]
    132d:	ff 4c 24 20          	dec    DWORD PTR [esp+0x20]
    1331:	83 7c 24 20 00       	cmp    DWORD PTR [esp+0x20],0x0
    1336:	75 e8                	jne    1320 <code+0x1320>
    1338:	8b 44 24 18          	mov    eax,DWORD PTR [esp+0x18]
    133c:	83 c4 14             	add    esp,0x14
    133f:	c3                   	ret    
    1340:	83 ec 14             	sub    esp,0x14
    1343:	8b 44 24 1c          	mov    eax,DWORD PTR [esp+0x1c]
    1347:	66 89 04 24          	mov    WORD PTR [esp],ax
    134b:	8b 44 24 18          	mov    eax,DWORD PTR [esp+0x18]
    134f:	89 44 24 10          	mov    DWORD PTR [esp+0x10],eax
    1353:	eb 13                	jmp    1368 <code+0x1368>
    1355:	8b 54 24 10          	mov    edx,DWORD PTR [esp+0x10]
    1359:	8b 04 24             	mov    eax,DWORD PTR [esp]
    135c:	66 89 02             	mov    WORD PTR [edx],ax
    135f:	83 44 24 10 02       	add    DWORD PTR [esp+0x10],0x2
    1364:	ff 4c 24 20          	dec    DWORD PTR [esp+0x20]
    1368:	83 7c 24 20 00       	cmp    DWORD PTR [esp+0x20],0x0
    136d:	75 e6                	jne    1355 <code+0x1355>
    136f:	8b 44 24 18          	mov    eax,DWORD PTR [esp+0x18]
    1373:	83 c4 14             	add    esp,0x14
    1376:	c3                   	ret    
    1377:	83 ec 0c             	sub    esp,0xc
    137a:	83 ec 08             	sub    esp,0x8
    137d:	ff 74 24 18          	push   DWORD PTR [esp+0x18]
    1381:	6a 2d                	push   0x2d
    1383:	e8 4b 00 00 00       	call   13d3 <code+0x13d3>
    1388:	83 c4 10             	add    esp,0x10
    138b:	83 c4 0c             	add    esp,0xc
    138e:	c3                   	ret    
    138f:	53                   	push   ebx
    1390:	83 ec 10             	sub    esp,0x10
    1393:	8b 44 24 18          	mov    eax,DWORD PTR [esp+0x18]
    1397:	8b 5c 24 1c          	mov    ebx,DWORD PTR [esp+0x1c]
    139b:	8b 4c 24 20          	mov    ecx,DWORD PTR [esp+0x20]
    139f:	8b 54 24 24          	mov    edx,DWORD PTR [esp+0x24]
    13a3:	cd 80                	int    0x80
    13a5:	89 44 24 0c          	mov    DWORD PTR [esp+0xc],eax
    13a9:	8b 44 24 0c          	mov    eax,DWORD PTR [esp+0xc]
    13ad:	83 c4 10             	add    esp,0x10
    13b0:	5b                   	pop    ebx
    13b1:	c3                   	ret    
    13b2:	53                   	push   ebx
    13b3:	83 ec 10             	sub    esp,0x10
    13b6:	8b 44 24 18          	mov    eax,DWORD PTR [esp+0x18]
    13ba:	8b 54 24 1c          	mov    edx,DWORD PTR [esp+0x1c]
    13be:	8b 4c 24 20          	mov    ecx,DWORD PTR [esp+0x20]
    13c2:	89 d3                	mov    ebx,edx
    13c4:	cd 80                	int    0x80
    13c6:	89 44 24 0c          	mov    DWORD PTR [esp+0xc],eax
    13ca:	8b 44 24 0c          	mov    eax,DWORD PTR [esp+0xc]
    13ce:	83 c4 10             	add    esp,0x10
    13d1:	5b                   	pop    ebx
    13d2:	c3                   	ret    
    13d3:	53                   	push   ebx
    13d4:	83 ec 10             	sub    esp,0x10
    13d7:	8b 44 24 18          	mov    eax,DWORD PTR [esp+0x18]
    13db:	8b 54 24 1c          	mov    edx,DWORD PTR [esp+0x1c]
    13df:	89 d3                	mov    ebx,edx
    13e1:	cd 80                	int    0x80
    13e3:	89 44 24 0c          	mov    DWORD PTR [esp+0xc],eax
    13e7:	8b 44 24 0c          	mov    eax,DWORD PTR [esp+0xc]
    13eb:	83 c4 10             	add    esp,0x10
    13ee:	5b                   	pop    ebx
    13ef:	c3                   	ret    
    13f0:	83 ec 10             	sub    esp,0x10
    13f3:	8b 44 24 14          	mov    eax,DWORD PTR [esp+0x14]
    13f7:	cd 80                	int    0x80
    13f9:	89 44 24 0c          	mov    DWORD PTR [esp+0xc],eax
    13fd:	8b 44 24 0c          	mov    eax,DWORD PTR [esp+0xc]
    1401:	83 c4 10             	add    esp,0x10
    1404:	c3                   	ret    
    1405:	6a 02                	push   0x2
    1407:	e8 e4 ff ff ff       	call   13f0 <code+0x13f0>
    140c:	83 c4 04             	add    esp,0x4
    140f:	c3                   	ret    
    1410:	ff 74 24 04          	push   DWORD PTR [esp+0x4]
    1414:	6a 01                	push   0x1
    1416:	e8 b8 ff ff ff       	call   13d3 <code+0x13d3>
    141b:	83 c4 08             	add    esp,0x8
    141e:	c3                   	ret    
    141f:	8b 44 24 08          	mov    eax,DWORD PTR [esp+0x8]
    1423:	ff 74 24 0c          	push   DWORD PTR [esp+0xc]
    1427:	50                   	push   eax
    1428:	ff 74 24 0c          	push   DWORD PTR [esp+0xc]
    142c:	6a 07                	push   0x7
    142e:	e8 5c ff ff ff       	call   138f <code+0x138f>
    1433:	83 c4 10             	add    esp,0x10
    1436:	c3                   	ret    
    1437:	6a 42                	push   0x42
    1439:	e8 b2 ff ff ff       	call   13f0 <code+0x13f0>
    143e:	83 c4 04             	add    esp,0x4
    1441:	c3                   	ret    
    1442:	6a 15                	push   0x15
    1444:	e8 a7 ff ff ff       	call   13f0 <code+0x13f0>
    1449:	83 c4 04             	add    esp,0x4
    144c:	c3                   	ret    
    144d:	6a 14                	push   0x14
    144f:	e8 9c ff ff ff       	call   13f0 <code+0x13f0>
    1454:	83 c4 04             	add    esp,0x4
    1457:	c3                   	ret    
    1458:	6a 40                	push   0x40
    145a:	e8 91 ff ff ff       	call   13f0 <code+0x13f0>
    145f:	83 c4 04             	add    esp,0x4
    1462:	c3                   	ret    
    1463:	8b 44 24 08          	mov    eax,DWORD PTR [esp+0x8]
    1467:	50                   	push   eax
    1468:	ff 74 24 08          	push   DWORD PTR [esp+0x8]
    146c:	68 f7 01 00 00       	push   0x1f7
    1471:	e8 3c ff ff ff       	call   13b2 <code+0x13b2>
    1476:	83 c4 0c             	add    esp,0xc
    1479:	c3                   	ret    
    147a:	8b 44 24 04          	mov    eax,DWORD PTR [esp+0x4]
    147e:	50                   	push   eax
    147f:	68 f8 01 00 00       	push   0x1f8
    1484:	e8 4a ff ff ff       	call   13d3 <code+0x13d3>
    1489:	83 c4 08             	add    esp,0x8
    148c:	c3                   	ret    
    148d:	8b 54 24 08          	mov    edx,DWORD PTR [esp+0x8]
    1491:	8b 44 24 04          	mov    eax,DWORD PTR [esp+0x4]
    1495:	52                   	push   edx
    1496:	50                   	push   eax
    1497:	6a 0b                	push   0xb
    1499:	e8 14 ff ff ff       	call   13b2 <code+0x13b2>
    149e:	83 c4 0c             	add    esp,0xc
    14a1:	c3                   	ret    
    14a2:	8b 44 24 0c          	mov    eax,DWORD PTR [esp+0xc]
    14a6:	50                   	push   eax
    14a7:	68 fa 01 00 00       	push   0x1fa
    14ac:	e8 22 ff ff ff       	call   13d3 <code+0x13d3>
    14b1:	83 c4 08             	add    esp,0x8
    14b4:	c3                   	ret    
    14b5:	68 fb 01 00 00       	push   0x1fb
    14ba:	e8 31 ff ff ff       	call   13f0 <code+0x13f0>
    14bf:	83 c4 04             	add    esp,0x4
    14c2:	c3                   	ret    
    14c3:	68 f9 01 00 00       	push   0x1f9
    14c8:	e8 23 ff ff ff       	call   13f0 <code+0x13f0>
    14cd:	83 c4 04             	add    esp,0x4
    14d0:	c3                   	ret    
    14d1:	ff 74 24 04          	push   DWORD PTR [esp+0x4]
    14d5:	68 fc 01 00 00       	push   0x1fc
    14da:	e8 f4 fe ff ff       	call   13d3 <code+0x13d3>
    14df:	83 c4 08             	add    esp,0x8
    14e2:	c3                   	ret    
    14e3:	68 fd 01 00 00       	push   0x1fd
    14e8:	e8 03 ff ff ff       	call   13f0 <code+0x13f0>
    14ed:	83 c4 04             	add    esp,0x4
    14f0:	c3                   	ret    
    14f1:	68 fe 01 00 00       	push   0x1fe
    14f6:	e8 f5 fe ff ff       	call   13f0 <code+0x13f0>
    14fb:	83 c4 04             	add    esp,0x4
    14fe:	c3                   	ret    
    14ff:	ff 74 24 04          	push   DWORD PTR [esp+0x4]
    1503:	68 ff 01 00 00       	push   0x1ff
    1508:	e8 c6 fe ff ff       	call   13d3 <code+0x13d3>
    150d:	83 c4 08             	add    esp,0x8
    1510:	c3                   	ret    
    1511:	68 00 02 00 00       	push   0x200
    1516:	e8 d5 fe ff ff       	call   13f0 <code+0x13f0>
    151b:	83 c4 04             	add    esp,0x4
    151e:	c3                   	ret    
    151f:	8b 54 24 08          	mov    edx,DWORD PTR [esp+0x8]
    1523:	8b 44 24 04          	mov    eax,DWORD PTR [esp+0x4]
    1527:	52                   	push   edx
    1528:	50                   	push   eax
    1529:	68 01 02 00 00       	push   0x201
    152e:	e8 7f fe ff ff       	call   13b2 <code+0x13b2>
    1533:	83 c4 0c             	add    esp,0xc
    1536:	c3                   	ret    
    1537:	83 ec 08             	sub    esp,0x8
    153a:	8b 54 24 0c          	mov    edx,DWORD PTR [esp+0xc]
    153e:	8b 44 24 10          	mov    eax,DWORD PTR [esp+0x10]
    1542:	88 54 24 04          	mov    BYTE PTR [esp+0x4],dl
    1546:	88 04 24             	mov    BYTE PTR [esp],al
    1549:	0f be 14 24          	movsx  edx,BYTE PTR [esp]
    154d:	0f be 44 24 04       	movsx  eax,BYTE PTR [esp+0x4]
    1552:	52                   	push   edx
    1553:	50                   	push   eax
    1554:	68 02 02 00 00       	push   0x202
    1559:	e8 54 fe ff ff       	call   13b2 <code+0x13b2>
    155e:	83 c4 0c             	add    esp,0xc
    1561:	83 c4 08             	add    esp,0x8
    1564:	c3                   	ret    
    1565:	8b 44 24 04          	mov    eax,DWORD PTR [esp+0x4]
    1569:	50                   	push   eax
    156a:	68 03 02 00 00       	push   0x203
    156f:	e8 5f fe ff ff       	call   13d3 <code+0x13d3>
    1574:	83 c4 08             	add    esp,0x8
    1577:	c3                   	ret    
    1578:	8b 44 24 04          	mov    eax,DWORD PTR [esp+0x4]
    157c:	50                   	push   eax
    157d:	68 04 02 00 00       	push   0x204
    1582:	e8 4c fe ff ff       	call   13d3 <code+0x13d3>
    1587:	83 c4 08             	add    esp,0x8
    158a:	c3                   	ret    
    158b:	81 ec b0 0f 00 00    	sub    esp,0xfb0
    1591:	66 c7 84 24 ae 0f 00 	mov    WORD PTR [esp+0xfae],0xf20
    1598:	00 20 0f 
    159b:	8d 44 24 0e          	lea    eax,[esp+0xe]
    159f:	50                   	push   eax
    15a0:	e8 c0 ff ff ff       	call   1565 <code+0x1565>
    15a5:	83 c4 04             	add    esp,0x4
    15a8:	0f b7 84 24 ae 0f 00 	movzx  eax,WORD PTR [esp+0xfae]
    15af:	00 
    15b0:	8d 54 24 0e          	lea    edx,[esp+0xe]
    15b4:	81 c2 00 0f 00 00    	add    edx,0xf00
    15ba:	6a 50                	push   0x50
    15bc:	50                   	push   eax
    15bd:	52                   	push   edx
    15be:	e8 7d fd ff ff       	call   1340 <code+0x1340>
    15c3:	83 c4 0c             	add    esp,0xc
    15c6:	8d 44 24 0e          	lea    eax,[esp+0xe]
    15ca:	05 a0 00 00 00       	add    eax,0xa0
    15cf:	50                   	push   eax
    15d0:	e8 a3 ff ff ff       	call   1578 <code+0x1578>
    15d5:	83 c4 04             	add    esp,0x4
    15d8:	81 c4 b0 0f 00 00    	add    esp,0xfb0
    15de:	c3                   	ret    
    15df:	81 ec b0 0f 00 00    	sub    esp,0xfb0
    15e5:	66 c7 84 24 ae 0f 00 	mov    WORD PTR [esp+0xfae],0xf20
    15ec:	00 20 0f 
    15ef:	8d 44 24 0e          	lea    eax,[esp+0xe]
    15f3:	05 a0 00 00 00       	add    eax,0xa0
    15f8:	50                   	push   eax
    15f9:	e8 67 ff ff ff       	call   1565 <code+0x1565>
    15fe:	83 c4 04             	add    esp,0x4
    1601:	0f b7 94 24 ae 0f 00 	movzx  edx,WORD PTR [esp+0xfae]
    1608:	00 
    1609:	8d 44 24 0e          	lea    eax,[esp+0xe]
    160d:	6a 50                	push   0x50
    160f:	52                   	push   edx
    1610:	50                   	push   eax
    1611:	e8 2a fd ff ff       	call   1340 <code+0x1340>
    1616:	83 c4 0c             	add    esp,0xc
    1619:	8d 44 24 0e          	lea    eax,[esp+0xe]
    161d:	50                   	push   eax
    161e:	e8 55 ff ff ff       	call   1578 <code+0x1578>
    1623:	83 c4 04             	add    esp,0x4
    1626:	81 c4 b0 0f 00 00    	add    esp,0xfb0
    162c:	c3                   	ret    
    162d:	8b 54 24 08          	mov    edx,DWORD PTR [esp+0x8]
    1631:	8b 44 24 04          	mov    eax,DWORD PTR [esp+0x4]
    1635:	52                   	push   edx
    1636:	50                   	push   eax
    1637:	68 05 02 00 00       	push   0x205
    163c:	e8 71 fd ff ff       	call   13b2 <code+0x13b2>
    1641:	83 c4 0c             	add    esp,0xc
    1644:	c3                   	ret    
    1645:	8b 44 24 04          	mov    eax,DWORD PTR [esp+0x4]
    1649:	50                   	push   eax
    164a:	68 06 02 00 00       	push   0x206
    164f:	e8 7f fd ff ff       	call   13d3 <code+0x13d3>
    1654:	83 c4 08             	add    esp,0x8
    1657:	c3                   	ret    
    1658:	8b 44 24 04          	mov    eax,DWORD PTR [esp+0x4]
    165c:	50                   	push   eax
    165d:	68 07 02 00 00       	push   0x207
    1662:	e8 6c fd ff ff       	call   13d3 <code+0x13d3>
    1667:	83 c4 08             	add    esp,0x8
    166a:	c3                   	ret    
    166b:	8b 44 24 04          	mov    eax,DWORD PTR [esp+0x4]
    166f:	50                   	push   eax
    1670:	68 08 02 00 00       	push   0x208
    1675:	e8 59 fd ff ff       	call   13d3 <code+0x13d3>
    167a:	83 c4 08             	add    esp,0x8
    167d:	c3                   	ret    
    167e:	8b 44 24 04          	mov    eax,DWORD PTR [esp+0x4]
    1682:	ff 74 24 08          	push   DWORD PTR [esp+0x8]
    1686:	50                   	push   eax
    1687:	6a 05                	push   0x5
    1689:	e8 24 fd ff ff       	call   13b2 <code+0x13b2>
    168e:	83 c4 0c             	add    esp,0xc
    1691:	c3                   	ret    
    1692:	8b 54 24 08          	mov    edx,DWORD PTR [esp+0x8]
    1696:	8b 44 24 04          	mov    eax,DWORD PTR [esp+0x4]
    169a:	52                   	push   edx
    169b:	50                   	push   eax
    169c:	6a 6a                	push   0x6a
    169e:	e8 0f fd ff ff       	call   13b2 <code+0x13b2>
    16a3:	83 c4 0c             	add    esp,0xc
    16a6:	c3                   	ret    
    16a7:	ff 74 24 04          	push   DWORD PTR [esp+0x4]
    16ab:	6a 06                	push   0x6
    16ad:	e8 21 fd ff ff       	call   13d3 <code+0x13d3>
    16b2:	83 c4 08             	add    esp,0x8
    16b5:	c3                   	ret    
    16b6:	8b 44 24 08          	mov    eax,DWORD PTR [esp+0x8]
    16ba:	ff 74 24 0c          	push   DWORD PTR [esp+0xc]
    16be:	50                   	push   eax
    16bf:	ff 74 24 0c          	push   DWORD PTR [esp+0xc]
    16c3:	6a 03                	push   0x3
    16c5:	e8 c5 fc ff ff       	call   138f <code+0x138f>
    16ca:	83 c4 10             	add    esp,0x10
    16cd:	c3                   	ret    
    16ce:	8b 44 24 08          	mov    eax,DWORD PTR [esp+0x8]
    16d2:	ff 74 24 0c          	push   DWORD PTR [esp+0xc]
    16d6:	50                   	push   eax
    16d7:	ff 74 24 0c          	push   DWORD PTR [esp+0xc]
    16db:	6a 04                	push   0x4
    16dd:	e8 ad fc ff ff       	call   138f <code+0x138f>
    16e2:	83 c4 10             	add    esp,0x10
    16e5:	c3                   	ret    
    16e6:	ff 74 24 0c          	push   DWORD PTR [esp+0xc]
    16ea:	ff 74 24 0c          	push   DWORD PTR [esp+0xc]
    16ee:	ff 74 24 0c          	push   DWORD PTR [esp+0xc]
    16f2:	6a 13                	push   0x13
    16f4:	e8 96 fc ff ff       	call   138f <code+0x138f>
    16f9:	83 c4 10             	add    esp,0x10
    16fc:	c3                   	ret    
    16fd:	ff 74 24 04          	push   DWORD PTR [esp+0x4]
    1701:	68 09 02 00 00       	push   0x209
    1706:	e8 c8 fc ff ff       	call   13d3 <code+0x13d3>
    170b:	83 c4 08             	add    esp,0x8
    170e:	c3                   	ret    
    170f:	8b 44 24 04          	mov    eax,DWORD PTR [esp+0x4]
    1713:	ff 74 24 08          	push   DWORD PTR [esp+0x8]
    1717:	50                   	push   eax
    1718:	6a 27                	push   0x27
    171a:	e8 93 fc ff ff       	call   13b2 <code+0x13b2>
    171f:	83 c4 0c             	add    esp,0xc
    1722:	c3                   	ret    
    1723:	8b 44 24 04          	mov    eax,DWORD PTR [esp+0x4]
    1727:	50                   	push   eax
    1728:	6a 28                	push   0x28
    172a:	e8 a4 fc ff ff       	call   13d3 <code+0x13d3>
    172f:	83 c4 08             	add    esp,0x8
    1732:	c3                   	ret    
    1733:	8b 54 24 0c          	mov    edx,DWORD PTR [esp+0xc]
    1737:	8b 44 24 04          	mov    eax,DWORD PTR [esp+0x4]
    173b:	52                   	push   edx
    173c:	ff 74 24 0c          	push   DWORD PTR [esp+0xc]
    1740:	50                   	push   eax
    1741:	6a 59                	push   0x59
    1743:	e8 47 fc ff ff       	call   138f <code+0x138f>
    1748:	83 c4 10             	add    esp,0x10
    174b:	c3                   	ret    
    174c:	ff 74 24 08          	push   DWORD PTR [esp+0x8]
    1750:	ff 74 24 08          	push   DWORD PTR [esp+0x8]
    1754:	6a 5d                	push   0x5d
    1756:	e8 57 fc ff ff       	call   13b2 <code+0x13b2>
    175b:	83 c4 0c             	add    esp,0xc
    175e:	c3                   	ret    
    175f:	8b 44 24 04          	mov    eax,DWORD PTR [esp+0x4]
    1763:	ff 74 24 08          	push   DWORD PTR [esp+0x8]
    1767:	50                   	push   eax
    1768:	6a 5c                	push   0x5c
    176a:	e8 43 fc ff ff       	call   13b2 <code+0x13b2>
    176f:	83 c4 0c             	add    esp,0xc
    1772:	c3                   	ret    
    1773:	8b 54 24 08          	mov    edx,DWORD PTR [esp+0x8]
    1777:	8b 44 24 04          	mov    eax,DWORD PTR [esp+0x4]
    177b:	52                   	push   edx
    177c:	50                   	push   eax
    177d:	6a 09                	push   0x9
    177f:	e8 2e fc ff ff       	call   13b2 <code+0x13b2>
    1784:	83 c4 0c             	add    esp,0xc
    1787:	c3                   	ret    
    1788:	8b 44 24 04          	mov    eax,DWORD PTR [esp+0x4]
    178c:	50                   	push   eax
    178d:	6a 0a                	push   0xa
    178f:	e8 3f fc ff ff       	call   13d3 <code+0x13d3>
    1794:	83 c4 08             	add    esp,0x8
    1797:	c3                   	ret    
    1798:	8b 54 24 08          	mov    edx,DWORD PTR [esp+0x8]
    179c:	8b 44 24 04          	mov    eax,DWORD PTR [esp+0x4]
    17a0:	52                   	push   edx
    17a1:	50                   	push   eax
    17a2:	6a 53                	push   0x53
    17a4:	e8 09 fc ff ff       	call   13b2 <code+0x13b2>
    17a9:	83 c4 0c             	add    esp,0xc
    17ac:	c3                   	ret    
    17ad:	8b 54 24 08          	mov    edx,DWORD PTR [esp+0x8]
    17b1:	8b 44 24 04          	mov    eax,DWORD PTR [esp+0x4]
    17b5:	ff 74 24 0c          	push   DWORD PTR [esp+0xc]
    17b9:	52                   	push   edx
    17ba:	50                   	push   eax
    17bb:	6a 55                	push   0x55
    17bd:	e8 cd fb ff ff       	call   138f <code+0x138f>
    17c2:	83 c4 10             	add    esp,0x10
    17c5:	c3                   	ret    
    17c6:	83 ec 2c             	sub    esp,0x2c
    17c9:	8b 44 24 38          	mov    eax,DWORD PTR [esp+0x38]
    17cd:	88 44 24 0c          	mov    BYTE PTR [esp+0xc],al
    17d1:	c6 44 24 17 01       	mov    BYTE PTR [esp+0x17],0x1
    17d6:	83 7c 24 34 00       	cmp    DWORD PTR [esp+0x34],0x0
    17db:	79 09                	jns    17e6 <code+0x17e6>
    17dd:	c6 44 24 17 00       	mov    BYTE PTR [esp+0x17],0x0
    17e2:	f7 5c 24 34          	neg    DWORD PTR [esp+0x34]
    17e6:	c7 44 24 18 00 00 00 	mov    DWORD PTR [esp+0x18],0x0
    17ed:	00 
    17ee:	eb 04                	jmp    17f4 <code+0x17f4>
    17f0:	90                   	nop
    17f1:	eb 01                	jmp    17f4 <code+0x17f4>
    17f3:	90                   	nop
    17f4:	83 7c 24 18 00       	cmp    DWORD PTR [esp+0x18],0x0
    17f9:	79 15                	jns    1810 <code+0x1810>
    17fb:	83 ec 0c             	sub    esp,0xc
    17fe:	68 a4 29 00 00       	push   0x29a4
    1803:	e8 55 0d 00 00       	call   255d <code+0x255d>
    1808:	83 c4 10             	add    esp,0x10
    180b:	e9 80 01 00 00       	jmp    1990 <code+0x1990>
    1810:	c6 44 24 16 00       	mov    BYTE PTR [esp+0x16],0x0
    1815:	83 ec 04             	sub    esp,0x4
    1818:	6a 01                	push   0x1
    181a:	8d 44 24 1e          	lea    eax,[esp+0x1e]
    181e:	50                   	push   eax
    181f:	6a 00                	push   0x0
    1821:	e8 90 fe ff ff       	call   16b6 <code+0x16b6>
    1826:	83 c4 10             	add    esp,0x10
    1829:	89 44 24 1c          	mov    DWORD PTR [esp+0x1c],eax
    182d:	83 7c 24 1c 00       	cmp    DWORD PTR [esp+0x1c],0x0
    1832:	75 0a                	jne    183e <code+0x183e>
    1834:	b8 ff ff ff ff       	mov    eax,0xffffffff
    1839:	e9 52 01 00 00       	jmp    1990 <code+0x1990>
    183e:	8a 44 24 16          	mov    al,BYTE PTR [esp+0x16]
    1842:	84 c0                	test   al,al
    1844:	74 ae                	je     17f4 <code+0x17f4>
    1846:	8a 44 24 16          	mov    al,BYTE PTR [esp+0x16]
    184a:	3c 1b                	cmp    al,0x1b
    184c:	74 a6                	je     17f4 <code+0x17f4>
    184e:	8a 44 24 16          	mov    al,BYTE PTR [esp+0x16]
    1852:	3c be                	cmp    al,0xbe
    1854:	77 9e                	ja     17f4 <code+0x17f4>
    1856:	8a 44 24 16          	mov    al,BYTE PTR [esp+0x16]
    185a:	3c 03                	cmp    al,0x3
    185c:	75 30                	jne    188e <code+0x188e>
    185e:	c7 44 24 18 00 00 00 	mov    DWORD PTR [esp+0x18],0x0
    1865:	00 
    1866:	8b 44 24 30          	mov    eax,DWORD PTR [esp+0x30]
    186a:	c6 00 00             	mov    BYTE PTR [eax],0x0
    186d:	80 7c 24 0c 00       	cmp    BYTE PTR [esp+0xc],0x0
    1872:	74 10                	je     1884 <code+0x1884>
    1874:	83 ec 0c             	sub    esp,0xc
    1877:	68 b4 29 00 00       	push   0x29b4
    187c:	e8 dc 0c 00 00       	call   255d <code+0x255d>
    1881:	83 c4 10             	add    esp,0x10
    1884:	b8 00 00 00 00       	mov    eax,0x0
    1889:	e9 02 01 00 00       	jmp    1990 <code+0x1990>
    188e:	8a 44 24 16          	mov    al,BYTE PTR [esp+0x16]
    1892:	3c 04                	cmp    al,0x4
    1894:	75 3e                	jne    18d4 <code+0x18d4>
    1896:	83 7c 24 18 00       	cmp    DWORD PTR [esp+0x18],0x0
    189b:	75 37                	jne    18d4 <code+0x18d4>
    189d:	83 ec 04             	sub    esp,0x4
    18a0:	6a 05                	push   0x5
    18a2:	68 b6 29 00 00       	push   0x29b6
    18a7:	ff 74 24 3c          	push   DWORD PTR [esp+0x3c]
    18ab:	e8 3d f9 ff ff       	call   11ed <code+0x11ed>
    18b0:	83 c4 10             	add    esp,0x10
    18b3:	80 7c 24 0c 00       	cmp    BYTE PTR [esp+0xc],0x0
    18b8:	74 10                	je     18ca <code+0x18ca>
    18ba:	83 ec 0c             	sub    esp,0xc
    18bd:	68 bb 29 00 00       	push   0x29bb
    18c2:	e8 96 0c 00 00       	call   255d <code+0x255d>
    18c7:	83 c4 10             	add    esp,0x10
    18ca:	b8 00 00 00 00       	mov    eax,0x0
    18cf:	e9 bc 00 00 00       	jmp    1990 <code+0x1990>
    18d4:	8a 44 24 16          	mov    al,BYTE PTR [esp+0x16]
    18d8:	3c 08                	cmp    al,0x8
    18da:	75 2c                	jne    1908 <code+0x1908>
    18dc:	83 7c 24 18 00       	cmp    DWORD PTR [esp+0x18],0x0
    18e1:	7e 25                	jle    1908 <code+0x1908>
    18e3:	ff 4c 24 18          	dec    DWORD PTR [esp+0x18]
    18e7:	80 7c 24 0c 00       	cmp    BYTE PTR [esp+0xc],0x0
    18ec:	74 14                	je     1902 <code+0x1902>
    18ee:	83 ec 04             	sub    esp,0x4
    18f1:	6a 03                	push   0x3
    18f3:	68 c1 29 00 00       	push   0x29c1
    18f8:	6a 01                	push   0x1
    18fa:	e8 cf fd ff ff       	call   16ce <code+0x16ce>
    18ff:	83 c4 10             	add    esp,0x10
    1902:	90                   	nop
    1903:	e9 ec fe ff ff       	jmp    17f4 <code+0x17f4>
    1908:	8a 44 24 16          	mov    al,BYTE PTR [esp+0x16]
    190c:	3c 0a                	cmp    al,0xa
    190e:	75 34                	jne    1944 <code+0x1944>
    1910:	80 7c 24 17 01       	cmp    BYTE PTR [esp+0x17],0x1
    1915:	75 1b                	jne    1932 <code+0x1932>
    1917:	80 7c 24 0c 00       	cmp    BYTE PTR [esp+0xc],0x0
    191c:	74 14                	je     1932 <code+0x1932>
    191e:	83 ec 04             	sub    esp,0x4
    1921:	6a 01                	push   0x1
    1923:	68 b4 29 00 00       	push   0x29b4
    1928:	6a 01                	push   0x1
    192a:	e8 9f fd ff ff       	call   16ce <code+0x16ce>
    192f:	83 c4 10             	add    esp,0x10
    1932:	8b 44 24 18          	mov    eax,DWORD PTR [esp+0x18]
    1936:	03 44 24 30          	add    eax,DWORD PTR [esp+0x30]
    193a:	c6 00 00             	mov    BYTE PTR [eax],0x0
    193d:	b8 00 00 00 00       	mov    eax,0x0
    1942:	eb 4c                	jmp    1990 <code+0x1990>
    1944:	8a 44 24 16          	mov    al,BYTE PTR [esp+0x16]
    1948:	3c 08                	cmp    al,0x8
    194a:	0f 84 a0 fe ff ff    	je     17f0 <code+0x17f0>
    1950:	8b 44 24 18          	mov    eax,DWORD PTR [esp+0x18]
    1954:	3b 44 24 34          	cmp    eax,DWORD PTR [esp+0x34]
    1958:	0f 8d 95 fe ff ff    	jge    17f3 <code+0x17f3>
    195e:	80 7c 24 0c 00       	cmp    BYTE PTR [esp+0xc],0x0
    1963:	74 14                	je     1979 <code+0x1979>
    1965:	83 ec 04             	sub    esp,0x4
    1968:	6a 01                	push   0x1
    196a:	8d 44 24 1e          	lea    eax,[esp+0x1e]
    196e:	50                   	push   eax
    196f:	6a 01                	push   0x1
    1971:	e8 58 fd ff ff       	call   16ce <code+0x16ce>
    1976:	83 c4 10             	add    esp,0x10
    1979:	8b 44 24 18          	mov    eax,DWORD PTR [esp+0x18]
    197d:	03 44 24 30          	add    eax,DWORD PTR [esp+0x30]
    1981:	8a 54 24 16          	mov    dl,BYTE PTR [esp+0x16]
    1985:	88 10                	mov    BYTE PTR [eax],dl
    1987:	ff 44 24 18          	inc    DWORD PTR [esp+0x18]
    198b:	e9 64 fe ff ff       	jmp    17f4 <code+0x17f4>
    1990:	83 c4 2c             	add    esp,0x2c
    1993:	c3                   	ret    
    1994:	83 ec 10             	sub    esp,0x10
    1997:	6a 01                	push   0x1
    1999:	8d 44 24 13          	lea    eax,[esp+0x13]
    199d:	50                   	push   eax
    199e:	6a 00                	push   0x0
    19a0:	e8 11 fd ff ff       	call   16b6 <code+0x16b6>
    19a5:	83 c4 0c             	add    esp,0xc
    19a8:	8a 44 24 0f          	mov    al,BYTE PTR [esp+0xf]
    19ac:	83 c4 10             	add    esp,0x10
    19af:	c3                   	ret    
    19b0:	8b 44 24 04          	mov    eax,DWORD PTR [esp+0x4]
    19b4:	ff 74 24 08          	push   DWORD PTR [esp+0x8]
    19b8:	50                   	push   eax
    19b9:	68 b7 00 00 00       	push   0xb7
    19be:	e8 ef f9 ff ff       	call   13b2 <code+0x13b2>
    19c3:	83 c4 0c             	add    esp,0xc
    19c6:	c3                   	ret    
    19c7:	8b 44 24 04          	mov    eax,DWORD PTR [esp+0x4]
    19cb:	50                   	push   eax
    19cc:	6a 0c                	push   0xc
    19ce:	e8 00 fa ff ff       	call   13d3 <code+0x13d3>
    19d3:	83 c4 08             	add    esp,0x8
    19d6:	c3                   	ret    
    19d7:	8b 44 24 04          	mov    eax,DWORD PTR [esp+0x4]
    19db:	50                   	push   eax
    19dc:	68 0a 02 00 00       	push   0x20a
    19e1:	e8 ed f9 ff ff       	call   13d3 <code+0x13d3>
    19e6:	83 c4 08             	add    esp,0x8
    19e9:	c3                   	ret    
    19ea:	6a 24                	push   0x24
    19ec:	e8 ff f9 ff ff       	call   13f0 <code+0x13f0>
    19f1:	83 c4 04             	add    esp,0x4
    19f4:	c3                   	ret    
    19f5:	ff 74 24 08          	push   DWORD PTR [esp+0x8]
    19f9:	ff 74 24 08          	push   DWORD PTR [esp+0x8]
    19fd:	6a 25                	push   0x25
    19ff:	e8 ae f9 ff ff       	call   13b2 <code+0x13b2>
    1a04:	83 c4 0c             	add    esp,0xc
    1a07:	c3                   	ret    
    1a08:	e8 40 fa ff ff       	call   144d <code+0x144d>
    1a0d:	ff 74 24 04          	push   DWORD PTR [esp+0x4]
    1a11:	50                   	push   eax
    1a12:	e8 de ff ff ff       	call   19f5 <code+0x19f5>
    1a17:	83 c4 08             	add    esp,0x8
    1a1a:	c3                   	ret    
    1a1b:	8b 44 24 08          	mov    eax,DWORD PTR [esp+0x8]
    1a1f:	50                   	push   eax
    1a20:	ff 74 24 08          	push   DWORD PTR [esp+0x8]
    1a24:	6a 30                	push   0x30
    1a26:	e8 87 f9 ff ff       	call   13b2 <code+0x13b2>
    1a2b:	83 c4 0c             	add    esp,0xc
    1a2e:	c3                   	ret    
    1a2f:	83 ec 04             	sub    esp,0x4
    1a32:	8b 44 24 08          	mov    eax,DWORD PTR [esp+0x8]
    1a36:	66 89 04 24          	mov    WORD PTR [esp],ax
    1a3a:	0f b7 04 24          	movzx  eax,WORD PTR [esp]
    1a3e:	50                   	push   eax
    1a3f:	68 d5 00 00 00       	push   0xd5
    1a44:	e8 8a f9 ff ff       	call   13d3 <code+0x13d3>
    1a49:	83 c4 08             	add    esp,0x8
    1a4c:	83 c4 04             	add    esp,0x4
    1a4f:	c3                   	ret    
    1a50:	83 ec 04             	sub    esp,0x4
    1a53:	8b 44 24 08          	mov    eax,DWORD PTR [esp+0x8]
    1a57:	66 89 04 24          	mov    WORD PTR [esp],ax
    1a5b:	0f b7 04 24          	movzx  eax,WORD PTR [esp]
    1a5f:	50                   	push   eax
    1a60:	68 d6 00 00 00       	push   0xd6
    1a65:	e8 69 f9 ff ff       	call   13d3 <code+0x13d3>
    1a6a:	83 c4 08             	add    esp,0x8
    1a6d:	83 c4 04             	add    esp,0x4
    1a70:	c3                   	ret    
    1a71:	83 ec 04             	sub    esp,0x4
    1a74:	8b 44 24 08          	mov    eax,DWORD PTR [esp+0x8]
    1a78:	66 89 04 24          	mov    WORD PTR [esp],ax
    1a7c:	0f b7 04 24          	movzx  eax,WORD PTR [esp]
    1a80:	50                   	push   eax
    1a81:	68 cb 00 00 00       	push   0xcb
    1a86:	e8 48 f9 ff ff       	call   13d3 <code+0x13d3>
    1a8b:	83 c4 08             	add    esp,0x8
    1a8e:	83 c4 04             	add    esp,0x4
    1a91:	c3                   	ret    
    1a92:	83 ec 04             	sub    esp,0x4
    1a95:	8b 44 24 08          	mov    eax,DWORD PTR [esp+0x8]
    1a99:	66 89 04 24          	mov    WORD PTR [esp],ax
    1a9d:	0f b7 04 24          	movzx  eax,WORD PTR [esp]
    1aa1:	50                   	push   eax
    1aa2:	68 cc 00 00 00       	push   0xcc
    1aa7:	e8 27 f9 ff ff       	call   13d3 <code+0x13d3>
    1aac:	83 c4 08             	add    esp,0x8
    1aaf:	83 c4 04             	add    esp,0x4
    1ab2:	c3                   	ret    
    1ab3:	83 ec 04             	sub    esp,0x4
    1ab6:	8b 44 24 08          	mov    eax,DWORD PTR [esp+0x8]
    1aba:	66 89 04 24          	mov    WORD PTR [esp],ax
    1abe:	8b 54 24 0c          	mov    edx,DWORD PTR [esp+0xc]
    1ac2:	0f b7 04 24          	movzx  eax,WORD PTR [esp]
    1ac6:	52                   	push   edx
    1ac7:	50                   	push   eax
    1ac8:	68 0b 02 00 00       	push   0x20b
    1acd:	e8 e0 f8 ff ff       	call   13b2 <code+0x13b2>
    1ad2:	83 c4 0c             	add    esp,0xc
    1ad5:	83 c4 04             	add    esp,0x4
    1ad8:	c3                   	ret    
    1ad9:	57                   	push   edi
    1ada:	56                   	push   esi
    1adb:	53                   	push   ebx
    1adc:	81 ec 20 06 00 00    	sub    esp,0x620
    1ae2:	8d 94 24 0c 02 00 00 	lea    edx,[esp+0x20c]
    1ae9:	bb 0e 2a 00 00       	mov    ebx,0x2a0e
    1aee:	b8 0a 00 00 00       	mov    eax,0xa
    1af3:	89 d7                	mov    edi,edx
    1af5:	89 de                	mov    esi,ebx
    1af7:	89 c1                	mov    ecx,eax
    1af9:	f3 a4                	rep movs BYTE PTR es:[edi],BYTE PTR ds:[esi]
    1afb:	8d 9c 24 16 02 00 00 	lea    ebx,[esp+0x216]
    1b02:	b0 00                	mov    al,0x0
    1b04:	ba f6 03 00 00       	mov    edx,0x3f6
    1b09:	89 df                	mov    edi,ebx
    1b0b:	89 d1                	mov    ecx,edx
    1b0d:	f3 aa                	rep stos BYTE PTR es:[edi],al
    1b0f:	6a 00                	push   0x0
    1b11:	68 c5 29 00 00       	push   0x29c5
    1b16:	e8 63 fb ff ff       	call   167e <code+0x167e>
    1b1b:	83 c4 08             	add    esp,0x8
    1b1e:	89 84 24 0c 06 00 00 	mov    DWORD PTR [esp+0x60c],eax
    1b25:	83 bc 24 0c 06 00 00 	cmp    DWORD PTR [esp+0x60c],0xffffffff
    1b2c:	ff 
    1b2d:	75 1a                	jne    1b49 <code+0x1b49>
    1b2f:	83 ec 0c             	sub    esp,0xc
    1b32:	68 d1 29 00 00       	push   0x29d1
    1b37:	e8 21 0a 00 00       	call   255d <code+0x255d>
    1b3c:	83 c4 10             	add    esp,0x10
    1b3f:	b8 ff ff ff ff       	mov    eax,0xffffffff
    1b44:	e9 57 02 00 00       	jmp    1da0 <code+0x1da0>
    1b49:	83 ec 04             	sub    esp,0x4
    1b4c:	68 00 04 00 00       	push   0x400
    1b51:	8d 84 24 14 02 00 00 	lea    eax,[esp+0x214]
    1b58:	50                   	push   eax
    1b59:	ff b4 24 18 06 00 00 	push   DWORD PTR [esp+0x618]
    1b60:	e8 51 fb ff ff       	call   16b6 <code+0x16b6>
    1b65:	83 c4 10             	add    esp,0x10
    1b68:	89 84 24 10 06 00 00 	mov    DWORD PTR [esp+0x610],eax
    1b6f:	83 bc 24 10 06 00 00 	cmp    DWORD PTR [esp+0x610],0xffffffff
    1b76:	ff 
    1b77:	75 21                	jne    1b9a <code+0x1b9a>
    1b79:	83 ec 08             	sub    esp,0x8
    1b7c:	ff b4 24 14 06 00 00 	push   DWORD PTR [esp+0x614]
    1b83:	68 ec 29 00 00       	push   0x29ec
    1b88:	e8 d0 09 00 00       	call   255d <code+0x255d>
    1b8d:	83 c4 10             	add    esp,0x10
    1b90:	b8 ff ff ff ff       	mov    eax,0xffffffff
    1b95:	e9 06 02 00 00       	jmp    1da0 <code+0x1da0>
    1b9a:	83 ec 0c             	sub    esp,0xc
    1b9d:	ff b4 24 18 06 00 00 	push   DWORD PTR [esp+0x618]
    1ba4:	e8 fe fa ff ff       	call   16a7 <code+0x16a7>
    1ba9:	83 c4 10             	add    esp,0x10
    1bac:	c7 84 24 14 06 00 00 	mov    DWORD PTR [esp+0x614],0x0
    1bb3:	00 00 00 00 
    1bb7:	8b 84 24 14 06 00 00 	mov    eax,DWORD PTR [esp+0x614]
    1bbe:	8d 94 24 0c 02 00 00 	lea    edx,[esp+0x20c]
    1bc5:	89 54 84 0c          	mov    DWORD PTR [esp+eax*4+0xc],edx
    1bc9:	ff 84 24 14 06 00 00 	inc    DWORD PTR [esp+0x614]
    1bd0:	c7 84 24 18 06 00 00 	mov    DWORD PTR [esp+0x618],0x1
    1bd7:	01 00 00 00 
    1bdb:	eb 5f                	jmp    1c3c <code+0x1c3c>
    1bdd:	8b 84 24 18 06 00 00 	mov    eax,DWORD PTR [esp+0x618]
    1be4:	8a 84 04 0c 02 00 00 	mov    al,BYTE PTR [esp+eax*1+0x20c]
    1beb:	3c 3a                	cmp    al,0x3a
    1bed:	74 12                	je     1c01 <code+0x1c01>
    1bef:	8b 84 24 18 06 00 00 	mov    eax,DWORD PTR [esp+0x618]
    1bf6:	8a 84 04 0c 02 00 00 	mov    al,BYTE PTR [esp+eax*1+0x20c]
    1bfd:	3c 0a                	cmp    al,0xa
    1bff:	75 34                	jne    1c35 <code+0x1c35>
    1c01:	8b 84 24 18 06 00 00 	mov    eax,DWORD PTR [esp+0x618]
    1c08:	c6 84 04 0c 02 00 00 	mov    BYTE PTR [esp+eax*1+0x20c],0x0
    1c0f:	00 
    1c10:	8b 94 24 14 06 00 00 	mov    edx,DWORD PTR [esp+0x614]
    1c17:	8b 84 24 18 06 00 00 	mov    eax,DWORD PTR [esp+0x618]
    1c1e:	8d 48 01             	lea    ecx,[eax+0x1]
    1c21:	8d 84 24 0c 02 00 00 	lea    eax,[esp+0x20c]
    1c28:	01 c8                	add    eax,ecx
    1c2a:	89 44 94 0c          	mov    DWORD PTR [esp+edx*4+0xc],eax
    1c2e:	ff 84 24 14 06 00 00 	inc    DWORD PTR [esp+0x614]
    1c35:	ff 84 24 18 06 00 00 	inc    DWORD PTR [esp+0x618]
    1c3c:	8b 84 24 18 06 00 00 	mov    eax,DWORD PTR [esp+0x618]
    1c43:	3b 84 24 10 06 00 00 	cmp    eax,DWORD PTR [esp+0x610]
    1c4a:	7c 91                	jl     1bdd <code+0x1bdd>
    1c4c:	c7 84 24 1c 06 00 00 	mov    DWORD PTR [esp+0x61c],0x0
    1c53:	00 00 00 00 
    1c57:	e9 15 01 00 00       	jmp    1d71 <code+0x1d71>
    1c5c:	8b 94 24 1c 06 00 00 	mov    edx,DWORD PTR [esp+0x61c]
    1c63:	89 d0                	mov    eax,edx
    1c65:	c1 e0 02             	shl    eax,0x2
    1c68:	01 d0                	add    eax,edx
    1c6a:	8b 44 84 0c          	mov    eax,DWORD PTR [esp+eax*4+0xc]
    1c6e:	83 ec 08             	sub    esp,0x8
    1c71:	ff b4 24 38 06 00 00 	push   DWORD PTR [esp+0x638]
    1c78:	50                   	push   eax
    1c79:	e8 50 f4 ff ff       	call   10ce <code+0x10ce>
    1c7e:	83 c4 10             	add    esp,0x10
    1c81:	85 c0                	test   eax,eax
    1c83:	0f 85 e1 00 00 00    	jne    1d6a <code+0x1d6a>
    1c89:	8b 94 24 1c 06 00 00 	mov    edx,DWORD PTR [esp+0x61c]
    1c90:	89 d0                	mov    eax,edx
    1c92:	c1 e0 02             	shl    eax,0x2
    1c95:	01 d0                	add    eax,edx
    1c97:	8b 54 84 0c          	mov    edx,DWORD PTR [esp+eax*4+0xc]
    1c9b:	8b 84 24 34 06 00 00 	mov    eax,DWORD PTR [esp+0x634]
    1ca2:	83 ec 04             	sub    esp,0x4
    1ca5:	6a 20                	push   0x20
    1ca7:	52                   	push   edx
    1ca8:	50                   	push   eax
    1ca9:	e8 3f f5 ff ff       	call   11ed <code+0x11ed>
    1cae:	83 c4 10             	add    esp,0x10
    1cb1:	8b 94 24 1c 06 00 00 	mov    edx,DWORD PTR [esp+0x61c]
    1cb8:	89 d0                	mov    eax,edx
    1cba:	c1 e0 02             	shl    eax,0x2
    1cbd:	01 d0                	add    eax,edx
    1cbf:	40                   	inc    eax
    1cc0:	8b 44 84 0c          	mov    eax,DWORD PTR [esp+eax*4+0xc]
    1cc4:	8b 94 24 34 06 00 00 	mov    edx,DWORD PTR [esp+0x634]
    1ccb:	83 c2 20             	add    edx,0x20
    1cce:	83 ec 04             	sub    esp,0x4
    1cd1:	6a 20                	push   0x20
    1cd3:	50                   	push   eax
    1cd4:	52                   	push   edx
    1cd5:	e8 13 f5 ff ff       	call   11ed <code+0x11ed>
    1cda:	83 c4 10             	add    esp,0x10
    1cdd:	8b 94 24 1c 06 00 00 	mov    edx,DWORD PTR [esp+0x61c]
    1ce4:	89 d0                	mov    eax,edx
    1ce6:	c1 e0 02             	shl    eax,0x2
    1ce9:	01 d0                	add    eax,edx
    1ceb:	83 c0 02             	add    eax,0x2
    1cee:	8b 44 84 0c          	mov    eax,DWORD PTR [esp+eax*4+0xc]
    1cf2:	83 ec 0c             	sub    esp,0xc
    1cf5:	50                   	push   eax
    1cf6:	e8 3b f5 ff ff       	call   1236 <code+0x1236>
    1cfb:	83 c4 10             	add    esp,0x10
    1cfe:	8b 94 24 34 06 00 00 	mov    edx,DWORD PTR [esp+0x634]
    1d05:	66 89 42 40          	mov    WORD PTR [edx+0x40],ax
    1d09:	8b 94 24 1c 06 00 00 	mov    edx,DWORD PTR [esp+0x61c]
    1d10:	89 d0                	mov    eax,edx
    1d12:	c1 e0 02             	shl    eax,0x2
    1d15:	01 d0                	add    eax,edx
    1d17:	83 c0 03             	add    eax,0x3
    1d1a:	8b 44 84 0c          	mov    eax,DWORD PTR [esp+eax*4+0xc]
    1d1e:	83 ec 0c             	sub    esp,0xc
    1d21:	50                   	push   eax
    1d22:	e8 0f f5 ff ff       	call   1236 <code+0x1236>
    1d27:	83 c4 10             	add    esp,0x10
    1d2a:	8b 94 24 34 06 00 00 	mov    edx,DWORD PTR [esp+0x634]
    1d31:	66 89 42 42          	mov    WORD PTR [edx+0x42],ax
    1d35:	8b 94 24 1c 06 00 00 	mov    edx,DWORD PTR [esp+0x61c]
    1d3c:	89 d0                	mov    eax,edx
    1d3e:	c1 e0 02             	shl    eax,0x2
    1d41:	01 d0                	add    eax,edx
    1d43:	83 c0 04             	add    eax,0x4
    1d46:	8b 44 84 0c          	mov    eax,DWORD PTR [esp+eax*4+0xc]
    1d4a:	8b 94 24 34 06 00 00 	mov    edx,DWORD PTR [esp+0x634]
    1d51:	83 c2 48             	add    edx,0x48
    1d54:	83 ec 04             	sub    esp,0x4
    1d57:	6a 20                	push   0x20
    1d59:	50                   	push   eax
    1d5a:	52                   	push   edx
    1d5b:	e8 8d f4 ff ff       	call   11ed <code+0x11ed>
    1d60:	83 c4 10             	add    esp,0x10
    1d63:	b8 00 00 00 00       	mov    eax,0x0
    1d68:	eb 36                	jmp    1da0 <code+0x1da0>
    1d6a:	ff 84 24 1c 06 00 00 	inc    DWORD PTR [esp+0x61c]
    1d71:	8b 8c 24 14 06 00 00 	mov    ecx,DWORD PTR [esp+0x614]
    1d78:	ba 67 66 66 66       	mov    edx,0x66666667
    1d7d:	89 c8                	mov    eax,ecx
    1d7f:	f7 ea                	imul   edx
    1d81:	d1 fa                	sar    edx,1
    1d83:	89 c8                	mov    eax,ecx
    1d85:	c1 f8 1f             	sar    eax,0x1f
    1d88:	89 d1                	mov    ecx,edx
    1d8a:	29 c1                	sub    ecx,eax
    1d8c:	89 c8                	mov    eax,ecx
    1d8e:	3b 84 24 1c 06 00 00 	cmp    eax,DWORD PTR [esp+0x61c]
    1d95:	0f 8f c1 fe ff ff    	jg     1c5c <code+0x1c5c>
    1d9b:	b8 ff ff ff ff       	mov    eax,0xffffffff
    1da0:	81 c4 20 06 00 00    	add    esp,0x620
    1da6:	5b                   	pop    ebx
    1da7:	5e                   	pop    esi
    1da8:	5f                   	pop    edi
    1da9:	c3                   	ret    
    1daa:	57                   	push   edi
    1dab:	56                   	push   esi
    1dac:	53                   	push   ebx
    1dad:	81 ec 30 06 00 00    	sub    esp,0x630
    1db3:	8b 84 24 40 06 00 00 	mov    eax,DWORD PTR [esp+0x640]
    1dba:	66 89 44 24 0c       	mov    WORD PTR [esp+0xc],ax
    1dbf:	8d 94 24 1c 02 00 00 	lea    edx,[esp+0x21c]
    1dc6:	bb 0e 2a 00 00       	mov    ebx,0x2a0e
    1dcb:	b8 0a 00 00 00       	mov    eax,0xa
    1dd0:	89 d7                	mov    edi,edx
    1dd2:	89 de                	mov    esi,ebx
    1dd4:	89 c1                	mov    ecx,eax
    1dd6:	f3 a4                	rep movs BYTE PTR es:[edi],BYTE PTR ds:[esi]
    1dd8:	8d 9c 24 26 02 00 00 	lea    ebx,[esp+0x226]
    1ddf:	b0 00                	mov    al,0x0
    1de1:	ba f6 03 00 00       	mov    edx,0x3f6
    1de6:	89 df                	mov    edi,ebx
    1de8:	89 d1                	mov    ecx,edx
    1dea:	f3 aa                	rep stos BYTE PTR es:[edi],al
    1dec:	6a 00                	push   0x0
    1dee:	68 c5 29 00 00       	push   0x29c5
    1df3:	e8 86 f8 ff ff       	call   167e <code+0x167e>
    1df8:	83 c4 08             	add    esp,0x8
    1dfb:	89 84 24 1c 06 00 00 	mov    DWORD PTR [esp+0x61c],eax
    1e02:	83 bc 24 1c 06 00 00 	cmp    DWORD PTR [esp+0x61c],0xffffffff
    1e09:	ff 
    1e0a:	75 1a                	jne    1e26 <code+0x1e26>
    1e0c:	83 ec 0c             	sub    esp,0xc
    1e0f:	68 d1 29 00 00       	push   0x29d1
    1e14:	e8 44 07 00 00       	call   255d <code+0x255d>
    1e19:	83 c4 10             	add    esp,0x10
    1e1c:	b8 ff ff ff ff       	mov    eax,0xffffffff
    1e21:	e9 58 02 00 00       	jmp    207e <code+0x207e>
    1e26:	83 ec 04             	sub    esp,0x4
    1e29:	68 00 04 00 00       	push   0x400
    1e2e:	8d 84 24 24 02 00 00 	lea    eax,[esp+0x224]
    1e35:	50                   	push   eax
    1e36:	ff b4 24 28 06 00 00 	push   DWORD PTR [esp+0x628]
    1e3d:	e8 74 f8 ff ff       	call   16b6 <code+0x16b6>
    1e42:	83 c4 10             	add    esp,0x10
    1e45:	89 84 24 20 06 00 00 	mov    DWORD PTR [esp+0x620],eax
    1e4c:	83 bc 24 20 06 00 00 	cmp    DWORD PTR [esp+0x620],0xffffffff
    1e53:	ff 
    1e54:	75 21                	jne    1e77 <code+0x1e77>
    1e56:	83 ec 08             	sub    esp,0x8
    1e59:	ff b4 24 24 06 00 00 	push   DWORD PTR [esp+0x624]
    1e60:	68 ec 29 00 00       	push   0x29ec
    1e65:	e8 f3 06 00 00       	call   255d <code+0x255d>
    1e6a:	83 c4 10             	add    esp,0x10
    1e6d:	b8 ff ff ff ff       	mov    eax,0xffffffff
    1e72:	e9 07 02 00 00       	jmp    207e <code+0x207e>
    1e77:	83 ec 0c             	sub    esp,0xc
    1e7a:	ff b4 24 28 06 00 00 	push   DWORD PTR [esp+0x628]
    1e81:	e8 21 f8 ff ff       	call   16a7 <code+0x16a7>
    1e86:	83 c4 10             	add    esp,0x10
    1e89:	c7 84 24 24 06 00 00 	mov    DWORD PTR [esp+0x624],0x0
    1e90:	00 00 00 00 
    1e94:	8b 84 24 24 06 00 00 	mov    eax,DWORD PTR [esp+0x624]
    1e9b:	8d 94 24 1c 02 00 00 	lea    edx,[esp+0x21c]
    1ea2:	89 54 84 1c          	mov    DWORD PTR [esp+eax*4+0x1c],edx
    1ea6:	ff 84 24 24 06 00 00 	inc    DWORD PTR [esp+0x624]
    1ead:	c7 84 24 28 06 00 00 	mov    DWORD PTR [esp+0x628],0x1
    1eb4:	01 00 00 00 
    1eb8:	eb 5f                	jmp    1f19 <code+0x1f19>
    1eba:	8b 84 24 28 06 00 00 	mov    eax,DWORD PTR [esp+0x628]
    1ec1:	8a 84 04 1c 02 00 00 	mov    al,BYTE PTR [esp+eax*1+0x21c]
    1ec8:	3c 3a                	cmp    al,0x3a
    1eca:	74 12                	je     1ede <code+0x1ede>
    1ecc:	8b 84 24 28 06 00 00 	mov    eax,DWORD PTR [esp+0x628]
    1ed3:	8a 84 04 1c 02 00 00 	mov    al,BYTE PTR [esp+eax*1+0x21c]
    1eda:	3c 0a                	cmp    al,0xa
    1edc:	75 34                	jne    1f12 <code+0x1f12>
    1ede:	8b 84 24 28 06 00 00 	mov    eax,DWORD PTR [esp+0x628]
    1ee5:	c6 84 04 1c 02 00 00 	mov    BYTE PTR [esp+eax*1+0x21c],0x0
    1eec:	00 
    1eed:	8b 94 24 24 06 00 00 	mov    edx,DWORD PTR [esp+0x624]
    1ef4:	8b 84 24 28 06 00 00 	mov    eax,DWORD PTR [esp+0x628]
    1efb:	8d 48 01             	lea    ecx,[eax+0x1]
    1efe:	8d 84 24 1c 02 00 00 	lea    eax,[esp+0x21c]
    1f05:	01 c8                	add    eax,ecx
    1f07:	89 44 94 1c          	mov    DWORD PTR [esp+edx*4+0x1c],eax
    1f0b:	ff 84 24 24 06 00 00 	inc    DWORD PTR [esp+0x624]
    1f12:	ff 84 24 28 06 00 00 	inc    DWORD PTR [esp+0x628]
    1f19:	8b 84 24 28 06 00 00 	mov    eax,DWORD PTR [esp+0x628]
    1f20:	3b 84 24 20 06 00 00 	cmp    eax,DWORD PTR [esp+0x620]
    1f27:	7c 91                	jl     1eba <code+0x1eba>
    1f29:	c7 84 24 2c 06 00 00 	mov    DWORD PTR [esp+0x62c],0x0
    1f30:	00 00 00 00 
    1f34:	e9 16 01 00 00       	jmp    204f <code+0x204f>
    1f39:	8b 94 24 2c 06 00 00 	mov    edx,DWORD PTR [esp+0x62c]
    1f40:	89 d0                	mov    eax,edx
    1f42:	c1 e0 02             	shl    eax,0x2
    1f45:	01 d0                	add    eax,edx
    1f47:	83 c0 02             	add    eax,0x2
    1f4a:	8b 44 84 1c          	mov    eax,DWORD PTR [esp+eax*4+0x1c]
    1f4e:	83 ec 0c             	sub    esp,0xc
    1f51:	50                   	push   eax
    1f52:	e8 df f2 ff ff       	call   1236 <code+0x1236>
    1f57:	83 c4 10             	add    esp,0x10
    1f5a:	0f b7 54 24 0c       	movzx  edx,WORD PTR [esp+0xc]
    1f5f:	39 d0                	cmp    eax,edx
    1f61:	0f 85 e1 00 00 00    	jne    2048 <code+0x2048>
    1f67:	8b 94 24 2c 06 00 00 	mov    edx,DWORD PTR [esp+0x62c]
    1f6e:	89 d0                	mov    eax,edx
    1f70:	c1 e0 02             	shl    eax,0x2
    1f73:	01 d0                	add    eax,edx
    1f75:	8b 54 84 1c          	mov    edx,DWORD PTR [esp+eax*4+0x1c]
    1f79:	8b 84 24 44 06 00 00 	mov    eax,DWORD PTR [esp+0x644]
    1f80:	83 ec 04             	sub    esp,0x4
    1f83:	6a 20                	push   0x20
    1f85:	52                   	push   edx
    1f86:	50                   	push   eax
    1f87:	e8 61 f2 ff ff       	call   11ed <code+0x11ed>
    1f8c:	83 c4 10             	add    esp,0x10
    1f8f:	8b 94 24 2c 06 00 00 	mov    edx,DWORD PTR [esp+0x62c]
    1f96:	89 d0                	mov    eax,edx
    1f98:	c1 e0 02             	shl    eax,0x2
    1f9b:	01 d0                	add    eax,edx
    1f9d:	40                   	inc    eax
    1f9e:	8b 44 84 1c          	mov    eax,DWORD PTR [esp+eax*4+0x1c]
    1fa2:	8b 94 24 44 06 00 00 	mov    edx,DWORD PTR [esp+0x644]
    1fa9:	83 c2 20             	add    edx,0x20
    1fac:	83 ec 04             	sub    esp,0x4
    1faf:	6a 20                	push   0x20
    1fb1:	50                   	push   eax
    1fb2:	52                   	push   edx
    1fb3:	e8 35 f2 ff ff       	call   11ed <code+0x11ed>
    1fb8:	83 c4 10             	add    esp,0x10
    1fbb:	8b 94 24 2c 06 00 00 	mov    edx,DWORD PTR [esp+0x62c]
    1fc2:	89 d0                	mov    eax,edx
    1fc4:	c1 e0 02             	shl    eax,0x2
    1fc7:	01 d0                	add    eax,edx
    1fc9:	83 c0 02             	add    eax,0x2
    1fcc:	8b 44 84 1c          	mov    eax,DWORD PTR [esp+eax*4+0x1c]
    1fd0:	83 ec 0c             	sub    esp,0xc
    1fd3:	50                   	push   eax
    1fd4:	e8 5d f2 ff ff       	call   1236 <code+0x1236>
    1fd9:	83 c4 10             	add    esp,0x10
    1fdc:	8b 94 24 44 06 00 00 	mov    edx,DWORD PTR [esp+0x644]
    1fe3:	66 89 42 40          	mov    WORD PTR [edx+0x40],ax
    1fe7:	8b 94 24 2c 06 00 00 	mov    edx,DWORD PTR [esp+0x62c]
    1fee:	89 d0                	mov    eax,edx
    1ff0:	c1 e0 02             	shl    eax,0x2
    1ff3:	01 d0                	add    eax,edx
    1ff5:	83 c0 03             	add    eax,0x3
    1ff8:	8b 44 84 1c          	mov    eax,DWORD PTR [esp+eax*4+0x1c]
    1ffc:	83 ec 0c             	sub    esp,0xc
    1fff:	50                   	push   eax
    2000:	e8 31 f2 ff ff       	call   1236 <code+0x1236>
    2005:	83 c4 10             	add    esp,0x10
    2008:	8b 94 24 44 06 00 00 	mov    edx,DWORD PTR [esp+0x644]
    200f:	66 89 42 42          	mov    WORD PTR [edx+0x42],ax
    2013:	8b 94 24 2c 06 00 00 	mov    edx,DWORD PTR [esp+0x62c]
    201a:	89 d0                	mov    eax,edx
    201c:	c1 e0 02             	shl    eax,0x2
    201f:	01 d0                	add    eax,edx
    2021:	83 c0 04             	add    eax,0x4
    2024:	8b 44 84 1c          	mov    eax,DWORD PTR [esp+eax*4+0x1c]
    2028:	8b 94 24 44 06 00 00 	mov    edx,DWORD PTR [esp+0x644]
    202f:	83 c2 48             	add    edx,0x48
    2032:	83 ec 04             	sub    esp,0x4
    2035:	6a 20                	push   0x20
    2037:	50                   	push   eax
    2038:	52                   	push   edx
    2039:	e8 af f1 ff ff       	call   11ed <code+0x11ed>
    203e:	83 c4 10             	add    esp,0x10
    2041:	b8 00 00 00 00       	mov    eax,0x0
    2046:	eb 36                	jmp    207e <code+0x207e>
    2048:	ff 84 24 2c 06 00 00 	inc    DWORD PTR [esp+0x62c]
    204f:	8b 8c 24 24 06 00 00 	mov    ecx,DWORD PTR [esp+0x624]
    2056:	ba 67 66 66 66       	mov    edx,0x66666667
    205b:	89 c8                	mov    eax,ecx
    205d:	f7 ea                	imul   edx
    205f:	d1 fa                	sar    edx,1
    2061:	89 c8                	mov    eax,ecx
    2063:	c1 f8 1f             	sar    eax,0x1f
    2066:	89 d1                	mov    ecx,edx
    2068:	29 c1                	sub    ecx,eax
    206a:	89 c8                	mov    eax,ecx
    206c:	3b 84 24 2c 06 00 00 	cmp    eax,DWORD PTR [esp+0x62c]
    2073:	0f 8f c0 fe ff ff    	jg     1f39 <code+0x1f39>
    2079:	b8 ff ff ff ff       	mov    eax,0xffffffff
    207e:	81 c4 30 06 00 00    	add    esp,0x630
    2084:	5b                   	pop    ebx
    2085:	5e                   	pop    esi
    2086:	5f                   	pop    edi
    2087:	c3                   	ret    
    2088:	6a 00                	push   0x0
    208a:	68 0c 02 00 00       	push   0x20c
    208f:	e8 3f f3 ff ff       	call   13d3 <code+0x13d3>
    2094:	83 c4 08             	add    esp,0x8
    2097:	c3                   	ret    
    2098:	6a 01                	push   0x1
    209a:	68 0c 02 00 00       	push   0x20c
    209f:	e8 2f f3 ff ff       	call   13d3 <code+0x13d3>
    20a4:	83 c4 08             	add    esp,0x8
    20a7:	c3                   	ret    
    20a8:	6a 02                	push   0x2
    20aa:	68 0c 02 00 00       	push   0x20c
    20af:	e8 1f f3 ff ff       	call   13d3 <code+0x13d3>
    20b4:	83 c4 08             	add    esp,0x8
    20b7:	c3                   	ret    
    20b8:	6a 03                	push   0x3
    20ba:	68 0c 02 00 00       	push   0x20c
    20bf:	e8 0f f3 ff ff       	call   13d3 <code+0x13d3>
    20c4:	83 c4 08             	add    esp,0x8
    20c7:	c3                   	ret    
    20c8:	83 ec 08             	sub    esp,0x8
    20cb:	8b 54 24 10          	mov    edx,DWORD PTR [esp+0x10]
    20cf:	8b 44 24 14          	mov    eax,DWORD PTR [esp+0x14]
    20d3:	66 89 54 24 04       	mov    WORD PTR [esp+0x4],dx
    20d8:	66 89 04 24          	mov    WORD PTR [esp],ax
    20dc:	0f bf 0c 24          	movsx  ecx,WORD PTR [esp]
    20e0:	0f bf 54 24 04       	movsx  edx,WORD PTR [esp+0x4]
    20e5:	8b 44 24 0c          	mov    eax,DWORD PTR [esp+0xc]
    20e9:	51                   	push   ecx
    20ea:	52                   	push   edx
    20eb:	50                   	push   eax
    20ec:	68 b6 00 00 00       	push   0xb6
    20f1:	e8 99 f2 ff ff       	call   138f <code+0x138f>
    20f6:	83 c4 10             	add    esp,0x10
    20f9:	83 c4 08             	add    esp,0x8
    20fc:	c3                   	ret    
    20fd:	83 ec 04             	sub    esp,0x4
    2100:	8b 44 24 0c          	mov    eax,DWORD PTR [esp+0xc]
    2104:	66 89 04 24          	mov    WORD PTR [esp],ax
    2108:	0f bf 14 24          	movsx  edx,WORD PTR [esp]
    210c:	8b 44 24 08          	mov    eax,DWORD PTR [esp+0x8]
    2110:	52                   	push   edx
    2111:	50                   	push   eax
    2112:	6a 0f                	push   0xf
    2114:	e8 99 f2 ff ff       	call   13b2 <code+0x13b2>
    2119:	83 c4 0c             	add    esp,0xc
    211c:	83 c4 04             	add    esp,0x4
    211f:	c3                   	ret    
    2120:	83 ec 04             	sub    esp,0x4
    2123:	8b 44 24 08          	mov    eax,DWORD PTR [esp+0x8]
    2127:	88 04 24             	mov    BYTE PTR [esp],al
    212a:	6a 01                	push   0x1
    212c:	8d 44 24 04          	lea    eax,[esp+0x4]
    2130:	50                   	push   eax
    2131:	6a 01                	push   0x1
    2133:	e8 96 f5 ff ff       	call   16ce <code+0x16ce>
    2138:	83 c4 0c             	add    esp,0xc
    213b:	83 c4 04             	add    esp,0x4
    213e:	c3                   	ret    
    213f:	83 7c 24 04 00       	cmp    DWORD PTR [esp+0x4],0x0
    2144:	74 1d                	je     2163 <code+0x2163>
    2146:	8b 44 24 04          	mov    eax,DWORD PTR [esp+0x4]
    214a:	8b 00                	mov    eax,DWORD PTR [eax]
    214c:	8b 54 24 08          	mov    edx,DWORD PTR [esp+0x8]
    2150:	88 10                	mov    BYTE PTR [eax],dl
    2152:	8b 44 24 04          	mov    eax,DWORD PTR [esp+0x4]
    2156:	8b 00                	mov    eax,DWORD PTR [eax]
    2158:	8d 50 01             	lea    edx,[eax+0x1]
    215b:	8b 44 24 04          	mov    eax,DWORD PTR [esp+0x4]
    215f:	89 10                	mov    DWORD PTR [eax],edx
    2161:	eb 10                	jmp    2173 <code+0x2173>
    2163:	8b 44 24 08          	mov    eax,DWORD PTR [esp+0x8]
    2167:	0f b6 c0             	movzx  eax,al
    216a:	50                   	push   eax
    216b:	e8 b0 ff ff ff       	call   2120 <code+0x2120>
    2170:	83 c4 04             	add    esp,0x4
    2173:	c3                   	ret    
    2174:	55                   	push   ebp
    2175:	57                   	push   edi
    2176:	56                   	push   esi
    2177:	53                   	push   ebx
    2178:	bb 00 00 00 00       	mov    ebx,0x0
    217d:	be 20 00 00 00       	mov    esi,0x20
    2182:	83 7c 24 1c 00       	cmp    DWORD PTR [esp+0x1c],0x0
    2187:	7e 38                	jle    21c1 <code+0x21c1>
    2189:	bf 00 00 00 00       	mov    edi,0x0
    218e:	8b 6c 24 18          	mov    ebp,DWORD PTR [esp+0x18]
    2192:	eb 02                	jmp    2196 <code+0x2196>
    2194:	47                   	inc    edi
    2195:	45                   	inc    ebp
    2196:	8a 45 00             	mov    al,BYTE PTR [ebp+0x0]
    2199:	84 c0                	test   al,al
    219b:	75 f7                	jne    2194 <code+0x2194>
    219d:	3b 7c 24 1c          	cmp    edi,DWORD PTR [esp+0x1c]
    21a1:	7c 0a                	jl     21ad <code+0x21ad>
    21a3:	c7 44 24 1c 00 00 00 	mov    DWORD PTR [esp+0x1c],0x0
    21aa:	00 
    21ab:	eb 04                	jmp    21b1 <code+0x21b1>
    21ad:	29 7c 24 1c          	sub    DWORD PTR [esp+0x1c],edi
    21b1:	8b 44 24 20          	mov    eax,DWORD PTR [esp+0x20]
    21b5:	83 e0 02             	and    eax,0x2
    21b8:	85 c0                	test   eax,eax
    21ba:	74 05                	je     21c1 <code+0x21c1>
    21bc:	be 30 00 00 00       	mov    esi,0x30
    21c1:	8b 44 24 20          	mov    eax,DWORD PTR [esp+0x20]
    21c5:	83 e0 01             	and    eax,0x1
    21c8:	85 c0                	test   eax,eax
    21ca:	75 3a                	jne    2206 <code+0x2206>
    21cc:	eb 12                	jmp    21e0 <code+0x21e0>
    21ce:	56                   	push   esi
    21cf:	ff 74 24 18          	push   DWORD PTR [esp+0x18]
    21d3:	e8 67 ff ff ff       	call   213f <code+0x213f>
    21d8:	83 c4 08             	add    esp,0x8
    21db:	43                   	inc    ebx
    21dc:	ff 4c 24 1c          	dec    DWORD PTR [esp+0x1c]
    21e0:	83 7c 24 1c 00       	cmp    DWORD PTR [esp+0x1c],0x0
    21e5:	7f e7                	jg     21ce <code+0x21ce>
    21e7:	eb 1e                	jmp    2207 <code+0x2207>
    21e9:	8b 44 24 18          	mov    eax,DWORD PTR [esp+0x18]
    21ed:	8a 00                	mov    al,BYTE PTR [eax]
    21ef:	0f be c0             	movsx  eax,al
    21f2:	50                   	push   eax
    21f3:	ff 74 24 18          	push   DWORD PTR [esp+0x18]
    21f7:	e8 43 ff ff ff       	call   213f <code+0x213f>
    21fc:	83 c4 08             	add    esp,0x8
    21ff:	43                   	inc    ebx
    2200:	ff 44 24 18          	inc    DWORD PTR [esp+0x18]
    2204:	eb 01                	jmp    2207 <code+0x2207>
    2206:	90                   	nop
    2207:	8b 44 24 18          	mov    eax,DWORD PTR [esp+0x18]
    220b:	8a 00                	mov    al,BYTE PTR [eax]
    220d:	84 c0                	test   al,al
    220f:	75 d8                	jne    21e9 <code+0x21e9>
    2211:	eb 12                	jmp    2225 <code+0x2225>
    2213:	56                   	push   esi
    2214:	ff 74 24 18          	push   DWORD PTR [esp+0x18]
    2218:	e8 22 ff ff ff       	call   213f <code+0x213f>
    221d:	83 c4 08             	add    esp,0x8
    2220:	43                   	inc    ebx
    2221:	ff 4c 24 1c          	dec    DWORD PTR [esp+0x1c]
    2225:	83 7c 24 1c 00       	cmp    DWORD PTR [esp+0x1c],0x0
    222a:	7f e7                	jg     2213 <code+0x2213>
    222c:	89 d8                	mov    eax,ebx
    222e:	5b                   	pop    ebx
    222f:	5e                   	pop    esi
    2230:	5f                   	pop    edi
    2231:	5d                   	pop    ebp
    2232:	c3                   	ret    
    2233:	55                   	push   ebp
    2234:	57                   	push   edi
    2235:	56                   	push   esi
    2236:	53                   	push   ebx
    2237:	83 ec 38             	sub    esp,0x38
    223a:	c7 44 24 04 00 00 00 	mov    DWORD PTR [esp+0x4],0x0
    2241:	00 
    2242:	bd 00 00 00 00       	mov    ebp,0x0
    2247:	8b 74 24 50          	mov    esi,DWORD PTR [esp+0x50]
    224b:	83 7c 24 50 00       	cmp    DWORD PTR [esp+0x50],0x0
    2250:	75 28                	jne    227a <code+0x227a>
    2252:	c6 44 24 16 30       	mov    BYTE PTR [esp+0x16],0x30
    2257:	c6 44 24 17 00       	mov    BYTE PTR [esp+0x17],0x0
    225c:	ff 74 24 60          	push   DWORD PTR [esp+0x60]
    2260:	ff 74 24 60          	push   DWORD PTR [esp+0x60]
    2264:	8d 44 24 1e          	lea    eax,[esp+0x1e]
    2268:	50                   	push   eax
    2269:	ff 74 24 58          	push   DWORD PTR [esp+0x58]
    226d:	e8 02 ff ff ff       	call   2174 <code+0x2174>
    2272:	83 c4 10             	add    esp,0x10
    2275:	e9 b8 00 00 00       	jmp    2332 <code+0x2332>
    227a:	83 7c 24 58 00       	cmp    DWORD PTR [esp+0x58],0x0
    227f:	74 1e                	je     229f <code+0x229f>
    2281:	83 7c 24 54 0a       	cmp    DWORD PTR [esp+0x54],0xa
    2286:	75 17                	jne    229f <code+0x229f>
    2288:	83 7c 24 50 00       	cmp    DWORD PTR [esp+0x50],0x0
    228d:	79 10                	jns    229f <code+0x229f>
    228f:	c7 44 24 04 01 00 00 	mov    DWORD PTR [esp+0x4],0x1
    2296:	00 
    2297:	8b 44 24 50          	mov    eax,DWORD PTR [esp+0x50]
    229b:	f7 d8                	neg    eax
    229d:	89 c6                	mov    esi,eax
    229f:	8d 44 24 16          	lea    eax,[esp+0x16]
    22a3:	8d 58 21             	lea    ebx,[eax+0x21]
    22a6:	c6 03 00             	mov    BYTE PTR [ebx],0x0
    22a9:	eb 3a                	jmp    22e5 <code+0x22e5>
    22ab:	8b 4c 24 54          	mov    ecx,DWORD PTR [esp+0x54]
    22af:	89 f0                	mov    eax,esi
    22b1:	ba 00 00 00 00       	mov    edx,0x0
    22b6:	f7 f1                	div    ecx
    22b8:	89 d0                	mov    eax,edx
    22ba:	89 c7                	mov    edi,eax
    22bc:	83 ff 09             	cmp    edi,0x9
    22bf:	7e 09                	jle    22ca <code+0x22ca>
    22c1:	8b 44 24 64          	mov    eax,DWORD PTR [esp+0x64]
    22c5:	83 e8 3a             	sub    eax,0x3a
    22c8:	01 c7                	add    edi,eax
    22ca:	4b                   	dec    ebx
    22cb:	89 f8                	mov    eax,edi
    22cd:	83 c0 30             	add    eax,0x30
    22d0:	88 03                	mov    BYTE PTR [ebx],al
    22d2:	8b 44 24 54          	mov    eax,DWORD PTR [esp+0x54]
    22d6:	89 04 24             	mov    DWORD PTR [esp],eax
    22d9:	89 f0                	mov    eax,esi
    22db:	ba 00 00 00 00       	mov    edx,0x0
    22e0:	f7 34 24             	div    DWORD PTR [esp]
    22e3:	89 c6                	mov    esi,eax
    22e5:	85 f6                	test   esi,esi
    22e7:	75 c2                	jne    22ab <code+0x22ab>
    22e9:	83 7c 24 04 00       	cmp    DWORD PTR [esp+0x4],0x0
    22ee:	74 2b                	je     231b <code+0x231b>
    22f0:	83 7c 24 5c 00       	cmp    DWORD PTR [esp+0x5c],0x0
    22f5:	74 20                	je     2317 <code+0x2317>
    22f7:	8b 44 24 60          	mov    eax,DWORD PTR [esp+0x60]
    22fb:	83 e0 02             	and    eax,0x2
    22fe:	85 c0                	test   eax,eax
    2300:	74 15                	je     2317 <code+0x2317>
    2302:	6a 2d                	push   0x2d
    2304:	ff 74 24 50          	push   DWORD PTR [esp+0x50]
    2308:	e8 32 fe ff ff       	call   213f <code+0x213f>
    230d:	83 c4 08             	add    esp,0x8
    2310:	45                   	inc    ebp
    2311:	ff 4c 24 5c          	dec    DWORD PTR [esp+0x5c]
    2315:	eb 04                	jmp    231b <code+0x231b>
    2317:	4b                   	dec    ebx
    2318:	c6 03 2d             	mov    BYTE PTR [ebx],0x2d
    231b:	ff 74 24 60          	push   DWORD PTR [esp+0x60]
    231f:	ff 74 24 60          	push   DWORD PTR [esp+0x60]
    2323:	53                   	push   ebx
    2324:	ff 74 24 58          	push   DWORD PTR [esp+0x58]
    2328:	e8 47 fe ff ff       	call   2174 <code+0x2174>
    232d:	83 c4 10             	add    esp,0x10
    2330:	01 e8                	add    eax,ebp
    2332:	83 c4 38             	add    esp,0x38
    2335:	5b                   	pop    ebx
    2336:	5e                   	pop    esi
    2337:	5f                   	pop    edi
    2338:	5d                   	pop    ebp
    2339:	c3                   	ret    
    233a:	55                   	push   ebp
    233b:	57                   	push   edi
    233c:	56                   	push   esi
    233d:	53                   	push   ebx
    233e:	83 ec 14             	sub    esp,0x14
    2341:	be 00 00 00 00       	mov    esi,0x0
    2346:	8b 44 24 2c          	mov    eax,DWORD PTR [esp+0x2c]
    234a:	8b 00                	mov    eax,DWORD PTR [eax]
    234c:	89 c3                	mov    ebx,eax
    234e:	83 44 24 2c 04       	add    DWORD PTR [esp+0x2c],0x4
    2353:	e9 d7 01 00 00       	jmp    252f <code+0x252f>
    2358:	8a 03                	mov    al,BYTE PTR [ebx]
    235a:	3c 25                	cmp    al,0x25
    235c:	0f 85 b9 01 00 00    	jne    251b <code+0x251b>
    2362:	43                   	inc    ebx
    2363:	bd 00 00 00 00       	mov    ebp,0x0
    2368:	89 ef                	mov    edi,ebp
    236a:	8a 03                	mov    al,BYTE PTR [ebx]
    236c:	84 c0                	test   al,al
    236e:	0f 84 c7 01 00 00    	je     253b <code+0x253b>
    2374:	8a 03                	mov    al,BYTE PTR [ebx]
    2376:	3c 25                	cmp    al,0x25
    2378:	0f 84 9c 01 00 00    	je     251a <code+0x251a>
    237e:	8a 03                	mov    al,BYTE PTR [ebx]
    2380:	3c 2d                	cmp    al,0x2d
    2382:	75 0e                	jne    2392 <code+0x2392>
    2384:	43                   	inc    ebx
    2385:	bd 01 00 00 00       	mov    ebp,0x1
    238a:	eb 07                	jmp    2393 <code+0x2393>
    238c:	43                   	inc    ebx
    238d:	83 cd 02             	or     ebp,0x2
    2390:	eb 01                	jmp    2393 <code+0x2393>
    2392:	90                   	nop
    2393:	8a 03                	mov    al,BYTE PTR [ebx]
    2395:	3c 30                	cmp    al,0x30
    2397:	74 f3                	je     238c <code+0x238c>
    2399:	eb 16                	jmp    23b1 <code+0x23b1>
    239b:	89 f8                	mov    eax,edi
    239d:	c1 e0 02             	shl    eax,0x2
    23a0:	01 f8                	add    eax,edi
    23a2:	d1 e0                	shl    eax,1
    23a4:	89 c7                	mov    edi,eax
    23a6:	8a 03                	mov    al,BYTE PTR [ebx]
    23a8:	0f be c0             	movsx  eax,al
    23ab:	83 e8 30             	sub    eax,0x30
    23ae:	01 c7                	add    edi,eax
    23b0:	43                   	inc    ebx
    23b1:	8a 03                	mov    al,BYTE PTR [ebx]
    23b3:	3c 2f                	cmp    al,0x2f
    23b5:	7e 06                	jle    23bd <code+0x23bd>
    23b7:	8a 03                	mov    al,BYTE PTR [ebx]
    23b9:	3c 39                	cmp    al,0x39
    23bb:	7e de                	jle    239b <code+0x239b>
    23bd:	8a 03                	mov    al,BYTE PTR [ebx]
    23bf:	0f be c0             	movsx  eax,al
    23c2:	83 e8 58             	sub    eax,0x58
    23c5:	83 f8 20             	cmp    eax,0x20
    23c8:	0f 87 60 01 00 00    	ja     252e <code+0x252e>
    23ce:	8b 04 85 18 2e 00 00 	mov    eax,DWORD PTR [eax*4+0x2e18]
    23d5:	ff e0                	jmp    eax
    23d7:	8b 44 24 2c          	mov    eax,DWORD PTR [esp+0x2c]
    23db:	8b 00                	mov    eax,DWORD PTR [eax]
    23dd:	89 04 24             	mov    DWORD PTR [esp],eax
    23e0:	83 44 24 2c 04       	add    DWORD PTR [esp+0x2c],0x4
    23e5:	83 3c 24 00          	cmp    DWORD PTR [esp],0x0
    23e9:	74 05                	je     23f0 <code+0x23f0>
    23eb:	8b 04 24             	mov    eax,DWORD PTR [esp]
    23ee:	eb 05                	jmp    23f5 <code+0x23f5>
    23f0:	b8 0e 2e 00 00       	mov    eax,0x2e0e
    23f5:	55                   	push   ebp
    23f6:	57                   	push   edi
    23f7:	50                   	push   eax
    23f8:	ff 74 24 34          	push   DWORD PTR [esp+0x34]
    23fc:	e8 73 fd ff ff       	call   2174 <code+0x2174>
    2401:	83 c4 10             	add    esp,0x10
    2404:	01 c6                	add    esi,eax
    2406:	e9 23 01 00 00       	jmp    252e <code+0x252e>
    240b:	8b 44 24 2c          	mov    eax,DWORD PTR [esp+0x2c]
    240f:	8b 00                	mov    eax,DWORD PTR [eax]
    2411:	83 44 24 2c 04       	add    DWORD PTR [esp+0x2c],0x4
    2416:	6a 61                	push   0x61
    2418:	55                   	push   ebp
    2419:	57                   	push   edi
    241a:	6a 01                	push   0x1
    241c:	6a 0a                	push   0xa
    241e:	50                   	push   eax
    241f:	ff 74 24 40          	push   DWORD PTR [esp+0x40]
    2423:	e8 0b fe ff ff       	call   2233 <code+0x2233>
    2428:	83 c4 1c             	add    esp,0x1c
    242b:	01 c6                	add    esi,eax
    242d:	e9 fc 00 00 00       	jmp    252e <code+0x252e>
    2432:	8b 44 24 2c          	mov    eax,DWORD PTR [esp+0x2c]
    2436:	8b 00                	mov    eax,DWORD PTR [eax]
    2438:	83 44 24 2c 04       	add    DWORD PTR [esp+0x2c],0x4
    243d:	6a 61                	push   0x61
    243f:	55                   	push   ebp
    2440:	57                   	push   edi
    2441:	6a 00                	push   0x0
    2443:	6a 08                	push   0x8
    2445:	50                   	push   eax
    2446:	ff 74 24 40          	push   DWORD PTR [esp+0x40]
    244a:	e8 e4 fd ff ff       	call   2233 <code+0x2233>
    244f:	83 c4 1c             	add    esp,0x1c
    2452:	01 c6                	add    esi,eax
    2454:	e9 d5 00 00 00       	jmp    252e <code+0x252e>
    2459:	8b 44 24 2c          	mov    eax,DWORD PTR [esp+0x2c]
    245d:	8b 00                	mov    eax,DWORD PTR [eax]
    245f:	83 44 24 2c 04       	add    DWORD PTR [esp+0x2c],0x4
    2464:	6a 61                	push   0x61
    2466:	55                   	push   ebp
    2467:	57                   	push   edi
    2468:	6a 00                	push   0x0
    246a:	6a 02                	push   0x2
    246c:	50                   	push   eax
    246d:	ff 74 24 40          	push   DWORD PTR [esp+0x40]
    2471:	e8 bd fd ff ff       	call   2233 <code+0x2233>
    2476:	83 c4 1c             	add    esp,0x1c
    2479:	01 c6                	add    esi,eax
    247b:	e9 ae 00 00 00       	jmp    252e <code+0x252e>
    2480:	8b 44 24 2c          	mov    eax,DWORD PTR [esp+0x2c]
    2484:	8b 00                	mov    eax,DWORD PTR [eax]
    2486:	83 44 24 2c 04       	add    DWORD PTR [esp+0x2c],0x4
    248b:	6a 61                	push   0x61
    248d:	55                   	push   ebp
    248e:	57                   	push   edi
    248f:	6a 00                	push   0x0
    2491:	6a 10                	push   0x10
    2493:	50                   	push   eax
    2494:	ff 74 24 40          	push   DWORD PTR [esp+0x40]
    2498:	e8 96 fd ff ff       	call   2233 <code+0x2233>
    249d:	83 c4 1c             	add    esp,0x1c
    24a0:	01 c6                	add    esi,eax
    24a2:	e9 87 00 00 00       	jmp    252e <code+0x252e>
    24a7:	8b 44 24 2c          	mov    eax,DWORD PTR [esp+0x2c]
    24ab:	8b 00                	mov    eax,DWORD PTR [eax]
    24ad:	83 44 24 2c 04       	add    DWORD PTR [esp+0x2c],0x4
    24b2:	6a 41                	push   0x41
    24b4:	55                   	push   ebp
    24b5:	57                   	push   edi
    24b6:	6a 00                	push   0x0
    24b8:	6a 10                	push   0x10
    24ba:	50                   	push   eax
    24bb:	ff 74 24 40          	push   DWORD PTR [esp+0x40]
    24bf:	e8 6f fd ff ff       	call   2233 <code+0x2233>
    24c4:	83 c4 1c             	add    esp,0x1c
    24c7:	01 c6                	add    esi,eax
    24c9:	eb 63                	jmp    252e <code+0x252e>
    24cb:	8b 44 24 2c          	mov    eax,DWORD PTR [esp+0x2c]
    24cf:	8b 00                	mov    eax,DWORD PTR [eax]
    24d1:	83 44 24 2c 04       	add    DWORD PTR [esp+0x2c],0x4
    24d6:	6a 61                	push   0x61
    24d8:	55                   	push   ebp
    24d9:	57                   	push   edi
    24da:	6a 00                	push   0x0
    24dc:	6a 0a                	push   0xa
    24de:	50                   	push   eax
    24df:	ff 74 24 40          	push   DWORD PTR [esp+0x40]
    24e3:	e8 4b fd ff ff       	call   2233 <code+0x2233>
    24e8:	83 c4 1c             	add    esp,0x1c
    24eb:	01 c6                	add    esi,eax
    24ed:	eb 3f                	jmp    252e <code+0x252e>
    24ef:	8b 44 24 2c          	mov    eax,DWORD PTR [esp+0x2c]
    24f3:	8b 00                	mov    eax,DWORD PTR [eax]
    24f5:	88 44 24 12          	mov    BYTE PTR [esp+0x12],al
    24f9:	83 44 24 2c 04       	add    DWORD PTR [esp+0x2c],0x4
    24fe:	c6 44 24 13 00       	mov    BYTE PTR [esp+0x13],0x0
    2503:	55                   	push   ebp
    2504:	57                   	push   edi
    2505:	8d 44 24 1a          	lea    eax,[esp+0x1a]
    2509:	50                   	push   eax
    250a:	ff 74 24 34          	push   DWORD PTR [esp+0x34]
    250e:	e8 61 fc ff ff       	call   2174 <code+0x2174>
    2513:	83 c4 10             	add    esp,0x10
    2516:	01 c6                	add    esi,eax
    2518:	eb 14                	jmp    252e <code+0x252e>
    251a:	90                   	nop
    251b:	8a 03                	mov    al,BYTE PTR [ebx]
    251d:	0f be c0             	movsx  eax,al
    2520:	50                   	push   eax
    2521:	ff 74 24 2c          	push   DWORD PTR [esp+0x2c]
    2525:	e8 15 fc ff ff       	call   213f <code+0x213f>
    252a:	83 c4 08             	add    esp,0x8
    252d:	46                   	inc    esi
    252e:	43                   	inc    ebx
    252f:	8a 03                	mov    al,BYTE PTR [ebx]
    2531:	84 c0                	test   al,al
    2533:	0f 85 1f fe ff ff    	jne    2358 <code+0x2358>
    2539:	eb 01                	jmp    253c <code+0x253c>
    253b:	90                   	nop
    253c:	83 7c 24 28 ff       	cmp    DWORD PTR [esp+0x28],0xffffffff
    2541:	74 10                	je     2553 <code+0x2553>
    2543:	83 7c 24 28 00       	cmp    DWORD PTR [esp+0x28],0x0
    2548:	74 09                	je     2553 <code+0x2553>
    254a:	8b 44 24 28          	mov    eax,DWORD PTR [esp+0x28]
    254e:	8b 00                	mov    eax,DWORD PTR [eax]
    2550:	c6 00 00             	mov    BYTE PTR [eax],0x0
    2553:	89 f0                	mov    eax,esi
    2555:	83 c4 14             	add    esp,0x14
    2558:	5b                   	pop    ebx
    2559:	5e                   	pop    esi
    255a:	5f                   	pop    edi
    255b:	5d                   	pop    ebp
    255c:	c3                   	ret    
    255d:	53                   	push   ebx
    255e:	8d 5c 24 08          	lea    ebx,[esp+0x8]
    2562:	53                   	push   ebx
    2563:	6a 00                	push   0x0
    2565:	e8 d0 fd ff ff       	call   233a <code+0x233a>
    256a:	83 c4 08             	add    esp,0x8
    256d:	5b                   	pop    ebx
    256e:	c3                   	ret    
    256f:	53                   	push   ebx
    2570:	8d 5c 24 0c          	lea    ebx,[esp+0xc]
    2574:	53                   	push   ebx
    2575:	8d 44 24 0c          	lea    eax,[esp+0xc]
    2579:	50                   	push   eax
    257a:	e8 bb fd ff ff       	call   233a <code+0x233a>
    257f:	83 c4 08             	add    esp,0x8
    2582:	5b                   	pop    ebx
    2583:	c3                   	ret    
    2584:	69 64 6c 65 00 75 6c 	imul   esp,DWORD PTR [esp+ebp*2+0x65],0x696c7500
    258b:	69 
    258c:	78 73                	js     2601 <code+0x2601>
    258e:	68 00 75 6e 6b       	push   0x6b6e7500
    2593:	6e                   	outs   dx,BYTE PTR ds:[esi]
    2594:	6f                   	outs   dx,DWORD PTR ds:[esi]
    2595:	77 6e                	ja     2605 <code+0x2605>
    2597:	00 25 73 40 75 6c    	add    BYTE PTR ds:0x6c754073,ah
    259d:	69 78 5b 25 64 5d 3a 	imul   edi,DWORD PTR [eax+0x5b],0x3a5d6425
    25a4:	25 73 25 63 20       	and    eax,0x20632573
    25a9:	00 65 78             	add    BYTE PTR [ebp+0x78],ah
    25ac:	69 74 00 00 75 6c 69 	imul   esi,DWORD PTR [eax+eax*1+0x0],0x78696c75
    25b3:	78 
    25b4:	73 68                	jae    261e <code+0x261e>
    25b6:	3a 20                	cmp    ah,BYTE PTR [eax]
    25b8:	53                   	push   ebx
    25b9:	6f                   	outs   dx,DWORD PTR ds:[esi]
    25ba:	72 72                	jb     262e <code+0x262e>
    25bc:	79 2c                	jns    25ea <code+0x25ea>
    25be:	20 79 6f             	and    BYTE PTR [ecx+0x6f],bh
    25c1:	75 20                	jne    25e3 <code+0x25e3>
    25c3:	63 61 6e             	arpl   WORD PTR [ecx+0x6e],sp
    25c6:	6e                   	outs   dx,BYTE PTR ds:[esi]
    25c7:	6f                   	outs   dx,DWORD PTR ds:[esi]
    25c8:	74 20                	je     25ea <code+0x25ea>
    25ca:	65                   	gs
    25cb:	78 69                	js     2636 <code+0x2636>
    25cd:	74 20                	je     25ef <code+0x25ef>
    25cf:	74 68                	je     2639 <code+0x2639>
    25d1:	65 20 74 6f 70       	and    BYTE PTR gs:[edi+ebp*2+0x70],dh
    25d6:	2d 6c 65 76 65       	sub    eax,0x6576656c
    25db:	6c                   	ins    BYTE PTR es:[edi],dx
    25dc:	20 73 68             	and    BYTE PTR [ebx+0x68],dh
    25df:	65                   	gs
    25e0:	6c                   	ins    BYTE PTR es:[edi],dx
    25e1:	6c                   	ins    BYTE PTR es:[edi],dx
    25e2:	2e 0a 00             	or     al,BYTE PTR cs:[eax]
    25e5:	00 66 6f             	add    BYTE PTR [esi+0x6f],ah
    25e8:	72 6b                	jb     2655 <code+0x2655>
    25ea:	74 65                	je     2651 <code+0x2651>
    25ec:	73 74                	jae    2662 <code+0x2662>
    25ee:	00 00                	add    BYTE PTR [eax],al
    25f0:	5b                   	pop    ebx
    25f1:	25 64 5d 75 20       	and    eax,0x20755d64
    25f6:	49                   	dec    ecx
    25f7:	20 61 6d             	and    BYTE PTR [ecx+0x6d],ah
    25fa:	20 61 20             	and    BYTE PTR [ecx+0x20],ah
    25fd:	63 68 69             	arpl   WORD PTR [eax+0x69],bp
    2600:	6c                   	ins    BYTE PTR es:[edi],dx
    2601:	64 2e 20 43 61       	and    BYTE PTR cs:fs:[ebx+0x61],al
    2606:	6c                   	ins    BYTE PTR es:[edi],dx
    2607:	6c                   	ins    BYTE PTR es:[edi],dx
    2608:	69 6e 67 20 65 78 69 	imul   ebp,DWORD PTR [esi+0x67],0x69786520
    260f:	74 28                	je     2639 <code+0x2639>
    2611:	25 64 29 2e 0a       	and    eax,0xa2e2964
    2616:	00 5b 25             	add    BYTE PTR [ebx+0x25],bl
    2619:	64                   	fs
    261a:	5d                   	pop    ebp
    261b:	75 20                	jne    263d <code+0x263d>
    261d:	45                   	inc    ebp
    261e:	52                   	push   edx
    261f:	52                   	push   edx
    2620:	4f                   	dec    edi
    2621:	52                   	push   edx
    2622:	3a 20                	cmp    ah,BYTE PTR [eax]
    2624:	43                   	inc    ebx
    2625:	6f                   	outs   dx,DWORD PTR ds:[esi]
    2626:	64 65 20 6e 61       	and    BYTE PTR fs:gs:[esi+0x61],ch
    262b:	63 68 20             	arpl   WORD PTR [eax+0x20],bp
    262e:	65                   	gs
    262f:	78 69                	js     269a <code+0x269a>
    2631:	74 2e                	je     2661 <code+0x2661>
    2633:	0a 00                	or     al,BYTE PTR [eax]
    2635:	5b                   	pop    ebx
    2636:	25 64 5d 75 20       	and    eax,0x20755d64
    263b:	77 61                	ja     269e <code+0x269e>
    263d:	69 74 70 69 64 28 29 	imul   esi,DWORD PTR [eax+esi*2+0x69],0x20292864
    2644:	20 
    2645:	72 65                	jb     26ac <code+0x26ac>
    2647:	74 75                	je     26be <code+0x26be>
    2649:	72 6e                	jb     26b9 <code+0x26b9>
    264b:	73 20                	jae    266d <code+0x266d>
    264d:	25 64 0a 00 58       	and    eax,0x58000a64
    2652:	00 48 61             	add    BYTE PTR [eax+0x61],cl
    2655:	6c                   	ins    BYTE PTR es:[edi],dx
    2656:	6c                   	ins    BYTE PTR es:[edi],dx
    2657:	6f                   	outs   dx,DWORD PTR ds:[esi]
    2658:	2c 20                	sub    al,0x20
    265a:	70 69                	jo     26c5 <code+0x26c5>
    265c:	64 20 3d 20 25 64 0a 	and    BYTE PTR fs:0xa642520,bh
    2663:	00 32                	add    BYTE PTR [edx],dh
    2665:	3e 00 52 45          	add    BYTE PTR ds:[edx+0x45],dl
    2669:	44                   	inc    esp
    266a:	49                   	dec    ecx
    266b:	52                   	push   edx
    266c:	45                   	inc    ebp
    266d:	43                   	inc    ebx
    266e:	54                   	push   esp
    266f:	20 73 74             	and    BYTE PTR [ebx+0x74],dh
    2672:	64                   	fs
    2673:	65                   	gs
    2674:	72 72                	jb     26e8 <code+0x26e8>
    2676:	20 54 4f 20          	and    BYTE PTR [edi+ecx*2+0x20],dl
    267a:	25 73 0a 00 3e       	and    eax,0x3e000a73
    267f:	00 52 45             	add    BYTE PTR [edx+0x45],dl
    2682:	44                   	inc    esp
    2683:	49                   	dec    ecx
    2684:	52                   	push   edx
    2685:	45                   	inc    ebp
    2686:	43                   	inc    ebx
    2687:	54                   	push   esp
    2688:	20 73 74             	and    BYTE PTR [ebx+0x74],dh
    268b:	64 6f                	outs   dx,DWORD PTR fs:[esi]
    268d:	75 74                	jne    2703 <code+0x2703>
    268f:	20 54 4f 20          	and    BYTE PTR [edi+ecx*2+0x20],dl
    2693:	25 73 0a 00 3c       	and    eax,0x3c000a73
    2698:	00 52 45             	add    BYTE PTR [edx+0x45],dl
    269b:	44                   	inc    esp
    269c:	49                   	dec    ecx
    269d:	52                   	push   edx
    269e:	45                   	inc    ebp
    269f:	43                   	inc    ebx
    26a0:	54                   	push   esp
    26a1:	20 73 74             	and    BYTE PTR [ebx+0x74],dh
    26a4:	64 69 6e 20 54 4f 20 	imul   ebp,DWORD PTR fs:[esi+0x20],0x25204f54
    26ab:	25 
    26ac:	73 0a                	jae    26b8 <code+0x26b8>
    26ae:	00 6c 6c 00          	add    BYTE PTR [esp+ebp*2+0x0],ch
    26b2:	2d 6c 00 6c 73       	sub    eax,0x736c006c
    26b7:	00 66 6f             	add    BYTE PTR [esi+0x6f],ah
    26ba:	72 6b                	jb     2727 <code+0x2727>
    26bc:	00 5b 25             	add    BYTE PTR [ebx+0x25],bl
    26bf:	64                   	fs
    26c0:	5d                   	pop    ebp
    26c1:	75 20                	jne    26e3 <code+0x26e3>
    26c3:	53                   	push   ebx
    26c4:	74 61                	je     2727 <code+0x2727>
    26c6:	72 74                	jb     273c <code+0x273c>
    26c8:	69 6e 67 20 66 6f 72 	imul   ebp,DWORD PTR [esi+0x67],0x726f6620
    26cf:	6b 74 65 73 74       	imul   esi,DWORD PTR [ebp+eiz*2+0x73],0x74
    26d4:	28 29                	sub    BYTE PTR [ecx],ch
    26d6:	0a 00                	or     al,BYTE PTR [eax]
    26d8:	74 65                	je     273f <code+0x273f>
    26da:	73 74                	jae    2750 <code+0x2750>
    26dc:	00 61 72             	add    BYTE PTR [ecx+0x72],ah
    26df:	67 20 25             	addr16 and BYTE PTR [di],ah
    26e2:	64 3a 20             	cmp    ah,BYTE PTR fs:[eax]
    26e5:	27                   	daa    
    26e6:	25 73 27 0a 00       	and    eax,0xa2773
    26eb:	66 6f                	outs   dx,WORD PTR ds:[esi]
    26ed:	72 6b                	jb     275a <code+0x275a>
    26ef:	2d 00 63 64 00       	sub    eax,0x646300
    26f4:	2f                   	das    
    26f5:	00 63 64             	add    BYTE PTR [ebx+0x64],ah
    26f8:	3a 20                	cmp    ah,BYTE PTR [eax]
    26fa:	63 61 6e             	arpl   WORD PTR [ecx+0x6e],sp
    26fd:	6e                   	outs   dx,BYTE PTR ds:[esi]
    26fe:	6f                   	outs   dx,DWORD PTR ds:[esi]
    26ff:	74 20                	je     2721 <code+0x2721>
    2701:	63 68 64             	arpl   WORD PTR [eax+0x64],bp
    2704:	69 72 20 74 6f 20 25 	imul   esi,DWORD PTR [edx+0x20],0x25206f74
    270b:	73 0a                	jae    2717 <code+0x2717>
    270d:	00 63 64             	add    BYTE PTR [ebx+0x64],ah
    2710:	3a 20                	cmp    ah,BYTE PTR [eax]
    2712:	30 20                	xor    BYTE PTR [eax],ah
    2714:	6f                   	outs   dx,DWORD PTR ds:[esi]
    2715:	72 20                	jb     2737 <code+0x2737>
    2717:	31 20                	xor    DWORD PTR [eax],esp
    2719:	61                   	popa   
    271a:	72 67                	jb     2783 <code+0x2783>
    271c:	75 6d                	jne    278b <code+0x278b>
    271e:	65 6e                	outs   dx,BYTE PTR gs:[esi]
    2720:	74 73                	je     2795 <code+0x2795>
    2722:	0a 00                	or     al,BYTE PTR [eax]
    2724:	70 77                	jo     279d <code+0x279d>
    2726:	64 00 25 73 0a 00 73 	add    BYTE PTR fs:0x73000a73,ah
    272d:	63 72 6f             	arpl   WORD PTR [edx+0x6f],si
    2730:	6c                   	ins    BYTE PTR es:[edi],dx
    2731:	6c                   	ins    BYTE PTR es:[edi],dx
    2732:	00 66 32             	add    BYTE PTR [esi+0x32],ah
    2735:	00 6c 6f 6f          	add    BYTE PTR [edi+ebp*2+0x6f],ch
    2739:	70 00                	jo     273b <code+0x273b>
    273b:	2a 00                	sub    al,BYTE PTR [eax]
    273d:	62 72 6b             	bound  esi,QWORD PTR [edx+0x6b]
    2740:	00 73 62             	add    BYTE PTR [ebx+0x62],dh
    2743:	72 6b                	jb     27b0 <code+0x27b0>
    2745:	28 34 30             	sub    BYTE PTR [eax+esi*1],dh
    2748:	39 36                	cmp    DWORD PTR [esi],esi
    274a:	29 20                	sub    DWORD PTR [eax],esp
    274c:	72 65                	jb     27b3 <code+0x27b3>
    274e:	74 75                	je     27c5 <code+0x27c5>
    2750:	72 6e                	jb     27c0 <code+0x27c0>
    2752:	73 20                	jae    2774 <code+0x2774>
    2754:	25 78 0a 00 57       	and    eax,0x57000a78
    2759:	72 69                	jb     27c4 <code+0x27c4>
    275b:	74 69                	je     27c6 <code+0x27c6>
    275d:	6e                   	outs   dx,BYTE PTR ds:[esi]
    275e:	67 20 74 6f          	addr16 and BYTE PTR [si+0x6f],dh
    2762:	20 6c 61 73          	and    BYTE PTR [ecx+eiz*2+0x73],ch
    2766:	74 20                	je     2788 <code+0x2788>
    2768:	76 61                	jbe    27cb <code+0x27cb>
    276a:	6c                   	ins    BYTE PTR es:[edi],dx
    276b:	69 64 20 61 64 64 72 	imul   esp,DWORD PTR [eax+eiz*1+0x61],0x65726464
    2772:	65 
    2773:	73 73                	jae    27e8 <code+0x27e8>
    2775:	2e 2e 2e 20 00       	and    BYTE PTR cs:[eax],al
    277a:	44                   	inc    esp
    277b:	6f                   	outs   dx,DWORD PTR ds:[esi]
    277c:	6e                   	outs   dx,BYTE PTR ds:[esi]
    277d:	65 0a 00             	or     al,BYTE PTR gs:[eax]
    2780:	68 65 6c 70 00       	push   0x706c65
    2785:	3f                   	aas    
    2786:	00 65 78             	add    BYTE PTR [ebp+0x78],ah
    2789:	69 74 20 73 74 61 74 	imul   esi,DWORD PTR [eax+eiz*1+0x73],0x65746174
    2790:	65 
    2791:	3a 20                	cmp    ah,BYTE PTR [eax]
    2793:	25 64 0a 00 65       	and    eax,0x65000a64
    2798:	78 65                	js     27ff <code+0x27ff>
    279a:	63 00                	arpl   WORD PTR [eax],ax
    279c:	65                   	gs
    279d:	78 65                	js     2804 <code+0x2804>
    279f:	63 3a                	arpl   WORD PTR [edx],di
    27a1:	20 72 65             	and    BYTE PTR [edx+0x65],dh
    27a4:	71 75                	jno    281b <code+0x281b>
    27a6:	69 72 65 73 20 6f 6e 	imul   esi,DWORD PTR [edx+0x65],0x6e6f2073
    27ad:	65 20 61 72          	and    BYTE PTR gs:[ecx+0x72],ah
    27b1:	67 75 6d             	addr16 jne 2821 <code+0x2821>
    27b4:	65 6e                	outs   dx,BYTE PTR gs:[esi]
    27b6:	74 0a                	je     27c2 <code+0x27c2>
    27b8:	00 72 65             	add    BYTE PTR [edx+0x65],dh
    27bb:	61                   	popa   
    27bc:	64 00 72 65          	add    BYTE PTR fs:[edx+0x65],dh
    27c0:	61                   	popa   
    27c1:	64 3a 20             	cmp    ah,BYTE PTR fs:[eax]
    27c4:	72 65                	jb     282b <code+0x282b>
    27c6:	71 75                	jno    283d <code+0x283d>
    27c8:	69 72 65 73 20 6f 6e 	imul   esi,DWORD PTR [edx+0x65],0x6e6f2073
    27cf:	65 20 61 72          	and    BYTE PTR gs:[ecx+0x72],ah
    27d3:	67 75 6d             	addr16 jne 2843 <code+0x2843>
    27d6:	65 6e                	outs   dx,BYTE PTR gs:[esi]
    27d8:	74 0a                	je     27e4 <code+0x27e4>
    27da:	00 66 64             	add    BYTE PTR [esi+0x64],ah
    27dd:	20 3d 20 6f 70 65    	and    BYTE PTR ds:0x65706f20,bh
    27e3:	6e                   	outs   dx,BYTE PTR ds:[esi]
    27e4:	28 29                	sub    BYTE PTR [ecx],ch
    27e6:	20 3d 20 25 64 0a    	and    BYTE PTR ds:0xa642520,bh
    27ec:	00 72 65             	add    BYTE PTR [edx+0x65],dh
    27ef:	61                   	popa   
    27f0:	64 3a 20             	cmp    ah,BYTE PTR fs:[eax]
    27f3:	25 73 3a 20 6e       	and    eax,0x6e203a73
    27f8:	6f                   	outs   dx,DWORD PTR ds:[esi]
    27f9:	20 73 75             	and    BYTE PTR [ebx+0x75],dh
    27fc:	63 68 20             	arpl   WORD PTR [eax+0x20],bp
    27ff:	66 69 6c 65 0a 00 72 	imul   bp,WORD PTR [ebp+eiz*2+0xa],0x7200
    2806:	65                   	gs
    2807:	61                   	popa   
    2808:	64 3a 20             	cmp    ah,BYTE PTR fs:[eax]
    280b:	74 6f                	je     287c <code+0x287c>
    280d:	74 61                	je     2870 <code+0x2870>
    280f:	6c                   	ins    BYTE PTR es:[edi],dx
    2810:	20 72 65             	and    BYTE PTR [edx+0x65],dh
    2813:	61                   	popa   
    2814:	64 20 62 79          	and    BYTE PTR fs:[edx+0x79],ah
    2818:	74 65                	je     287f <code+0x287f>
    281a:	73 3a                	jae    2856 <code+0x2856>
    281c:	20 25 64 0a 00 6c    	and    BYTE PTR ds:0x6c000a64,ah
    2822:	6e                   	outs   dx,BYTE PTR ds:[esi]
    2823:	00 6c 6e 20          	add    BYTE PTR [esi+ebp*2+0x20],ch
    2827:	5b                   	pop    ebx
    2828:	2d 73 5d 20 73       	sub    eax,0x73205d73
    282d:	6f                   	outs   dx,DWORD PTR ds:[esi]
    282e:	75 72                	jne    28a2 <code+0x28a2>
    2830:	63 65 5f             	arpl   WORD PTR [ebp+0x5f],sp
    2833:	66 69 6c 65 20 74 61 	imul   bp,WORD PTR [ebp+eiz*2+0x20],0x6174
    283a:	72 67                	jb     28a3 <code+0x28a3>
    283c:	65                   	gs
    283d:	74 5f                	je     289e <code+0x289e>
    283f:	66 69 6c 65 0a 00 2d 	imul   bp,WORD PTR [ebp+eiz*2+0xa],0x2d00
    2846:	73 00                	jae    2848 <code+0x2848>
    2848:	6c                   	ins    BYTE PTR es:[edi],dx
    2849:	6e                   	outs   dx,BYTE PTR ds:[esi]
    284a:	20 2d 73 20 73 6f    	and    BYTE PTR ds:0x6f732073,ch
    2850:	75 72                	jne    28c4 <code+0x28c4>
    2852:	63 65 5f             	arpl   WORD PTR [ebp+0x5f],sp
    2855:	66 69 6c 65 20 74 61 	imul   bp,WORD PTR [ebp+eiz*2+0x20],0x6174
    285c:	72 67                	jb     28c5 <code+0x28c5>
    285e:	65                   	gs
    285f:	74 5f                	je     28c0 <code+0x28c0>
    2861:	66 69 6c 65 0a 00 73 	imul   bp,WORD PTR [ebp+eiz*2+0xa],0x7300
    2868:	79 6d                	jns    28d7 <code+0x28d7>
    286a:	6c                   	ins    BYTE PTR es:[edi],dx
    286b:	69 6e 6b 28 29 20 72 	imul   ebp,DWORD PTR [esi+0x6b],0x72202928
    2872:	65                   	gs
    2873:	74 75                	je     28ea <code+0x28ea>
    2875:	72 6e                	jb     28e5 <code+0x28e5>
    2877:	73 20                	jae    2899 <code+0x2899>
    2879:	25 64 0a 00 6c       	and    eax,0x6c000a64
    287e:	69 6e 6b 28 29 20 72 	imul   ebp,DWORD PTR [esi+0x6b],0x72202928
    2885:	65                   	gs
    2886:	74 75                	je     28fd <code+0x28fd>
    2888:	72 6e                	jb     28f8 <code+0x28f8>
    288a:	73 20                	jae    28ac <code+0x28ac>
    288c:	25 64 0a 00 68       	and    eax,0x68000a64
    2891:	65                   	gs
    2892:	61                   	popa   
    2893:	64 00 66 69          	add    BYTE PTR fs:[esi+0x69],ah
    2897:	6c                   	ins    BYTE PTR es:[edi],dx
    2898:	65 20 6e 6f          	and    BYTE PTR gs:[esi+0x6f],ch
    289c:	74 20                	je     28be <code+0x28be>
    289e:	66 6f                	outs   dx,WORD PTR ds:[esi]
    28a0:	75 6e                	jne    2910 <code+0x2910>
    28a2:	64 0a 00             	or     al,BYTE PTR fs:[eax]
    28a5:	72 65                	jb     290c <code+0x290c>
    28a7:	61                   	popa   
    28a8:	64 28 29             	sub    BYTE PTR fs:[ecx],ch
    28ab:	3d 25 64 2c 20       	cmp    eax,0x202c6425
    28b0:	25 73 0a 00 2f       	and    eax,0x2f000a73
    28b5:	62 69 6e             	bound  ebp,QWORD PTR [ecx+0x6e]
    28b8:	2f                   	das    
    28b9:	00 45 72             	add    BYTE PTR [ebp+0x72],al
    28bc:	72 6f                	jb     292d <code+0x292d>
    28be:	72 20                	jb     28e0 <code+0x28e0>
    28c0:	69 6e 20 65 78 65 63 	imul   ebp,DWORD PTR [esi+0x20],0x63657865
    28c7:	76 3a                	jbe    2903 <code+0x2903>
    28c9:	20 25 73 20 6e 6f    	and    BYTE PTR ds:0x6f6e2073,ah
    28cf:	74 20                	je     28f1 <code+0x28f1>
    28d1:	66 6f                	outs   dx,WORD PTR ds:[esi]
    28d3:	75 6e                	jne    2943 <code+0x2943>
    28d5:	64 0a 00             	or     al,BYTE PTR fs:[eax]
    28d8:	61                   	popa   
    28d9:	00 00                	add    BYTE PTR [eax],al
    28db:	00 68 65             	add    BYTE PTR [eax+0x65],ch
    28de:	6c                   	ins    BYTE PTR es:[edi],dx
    28df:	70 2c                	jo     290d <code+0x290d>
    28e1:	20 66 6f             	and    BYTE PTR [esi+0x6f],ah
    28e4:	72 6b                	jb     2951 <code+0x2951>
    28e6:	2c 20                	sub    al,0x20
    28e8:	6c                   	ins    BYTE PTR es:[edi],dx
    28e9:	73 2c                	jae    2917 <code+0x2917>
    28eb:	20 68 65             	and    BYTE PTR [eax+0x65],ch
    28ee:	61                   	popa   
    28ef:	64                   	fs
    28f0:	2c 20                	sub    al,0x20
    28f2:	73 68                	jae    295c <code+0x295c>
    28f4:	2c 20                	sub    al,0x20
    28f6:	6c                   	ins    BYTE PTR es:[edi],dx
    28f7:	6f                   	outs   dx,DWORD PTR ds:[esi]
    28f8:	6f                   	outs   dx,DWORD PTR ds:[esi]
    28f9:	70 2c                	jo     2927 <code+0x2927>
    28fb:	20 74 65 73          	and    BYTE PTR [ebp+eiz*2+0x73],dh
    28ff:	74 2c                	je     292d <code+0x292d>
    2901:	20 62 72             	and    BYTE PTR [edx+0x72],ah
    2904:	6b 2c 20 63          	imul   ebp,DWORD PTR [eax+eiz*1],0x63
    2908:	64                   	fs
    2909:	2c 20                	sub    al,0x20
    290b:	6c                   	ins    BYTE PTR es:[edi],dx
    290c:	6e                   	outs   dx,BYTE PTR ds:[esi]
    290d:	2c 20                	sub    al,0x20
    290f:	70 77                	jo     2988 <code+0x2988>
    2911:	64                   	fs
    2912:	2c 20                	sub    al,0x20
    2914:	72 65                	jb     297b <code+0x297b>
    2916:	61                   	popa   
    2917:	64                   	fs
    2918:	2c 20                	sub    al,0x20
    291a:	73 63                	jae    297f <code+0x297f>
    291c:	72 6f                	jb     298d <code+0x298d>
    291e:	6c                   	ins    BYTE PTR es:[edi],dx
    291f:	6c                   	ins    BYTE PTR es:[edi],dx
    2920:	2c 20                	sub    al,0x20
    2922:	65                   	gs
    2923:	78 69                	js     298e <code+0x298e>
    2925:	74 2c                	je     2953 <code+0x2953>
    2927:	20 3f                	and    BYTE PTR [edi],bh
    2929:	00 00                	add    BYTE PTR [eax],al
    292b:	00 55 6c             	add    BYTE PTR [ebp+0x6c],dl
    292e:	69 78 20 55 73 65 72 	imul   edi,DWORD PTR [eax+0x20],0x72657355
    2935:	6d                   	ins    DWORD PTR es:[edi],dx
    2936:	6f                   	outs   dx,DWORD PTR ds:[esi]
    2937:	64 65 20 53 68       	and    BYTE PTR fs:gs:[ebx+0x68],dl
    293c:	65                   	gs
    293d:	6c                   	ins    BYTE PTR es:[edi],dx
    293e:	6c                   	ins    BYTE PTR es:[edi],dx
    293f:	20 30                	and    BYTE PTR [eax],dh
    2941:	2e 31 30             	xor    DWORD PTR cs:[eax],esi
    2944:	2e 20 43 6f          	and    BYTE PTR cs:[ebx+0x6f],al
    2948:	6d                   	ins    DWORD PTR es:[edi],dx
    2949:	6d                   	ins    DWORD PTR es:[edi],dx
    294a:	61                   	popa   
    294b:	6e                   	outs   dx,BYTE PTR ds:[esi]
    294c:	64                   	fs
    294d:	73 3a                	jae    2989 <code+0x2989>
    294f:	20 25 73 0a 00 50    	and    BYTE PTR ds:0x50000a73,ah
    2955:	72 65                	jb     29bc <code+0x29bc>
    2957:	73 73                	jae    29cc <code+0x29cc>
    2959:	20 5b 53             	and    BYTE PTR [ebx+0x53],bl
    295c:	68 69 66 74 2b       	push   0x2b746669
    2961:	45                   	inc    ebp
    2962:	73 63                	jae    29c7 <code+0x29c7>
    2964:	5d                   	pop    ebp
    2965:	20 74 6f 20          	and    BYTE PTR [edi+ebp*2+0x20],dh
    2969:	6c                   	ins    BYTE PTR es:[edi],dx
    296a:	61                   	popa   
    296b:	75 6e                	jne    29db <code+0x29db>
    296d:	63 68 20             	arpl   WORD PTR [eax+0x20],bp
    2970:	6b 65 72 6e          	imul   esp,DWORD PTR [ebp+0x72],0x6e
    2974:	65                   	gs
    2975:	6c                   	ins    BYTE PTR es:[edi],dx
    2976:	20 6d 6f             	and    BYTE PTR [ebp+0x6f],ch
    2979:	64 65 20 73 68       	and    BYTE PTR fs:gs:[ebx+0x68],dh
    297e:	65                   	gs
    297f:	6c                   	ins    BYTE PTR es:[edi],dx
    2980:	6c                   	ins    BYTE PTR es:[edi],dx
    2981:	20 28                	and    BYTE PTR [eax],ch
    2983:	72 65                	jb     29ea <code+0x29ea>
    2985:	62 6f 6f             	bound  ebp,QWORD PTR [edi+0x6f]
    2988:	74 20                	je     29aa <code+0x29aa>
    298a:	74 6f                	je     29fb <code+0x29fb>
    298c:	20 67 65             	and    BYTE PTR [edi+0x65],ah
    298f:	74 20                	je     29b1 <code+0x29b1>
    2991:	62 61 63             	bound  esp,QWORD PTR [ecx+0x63]
    2994:	6b 20 68             	imul   esp,DWORD PTR [eax],0x68
    2997:	65                   	gs
    2998:	72 65                	jb     29ff <code+0x29ff>
    299a:	29 0a                	sub    DWORD PTR [edx],ecx
    299c:	00 00                	add    BYTE PTR [eax],al
    299e:	00 00                	add    BYTE PTR [eax],al
    29a0:	2f                   	das    
    29a1:	00 2e                	add    BYTE PTR [esi],ch
    29a3:	00 45 52             	add    BYTE PTR [ebp+0x52],al
    29a6:	52                   	push   edx
    29a7:	4f                   	dec    edi
    29a8:	52                   	push   edx
    29a9:	3a 20                	cmp    ah,BYTE PTR [eax]
    29ab:	70 6f                	jo     2a1c <code+0x2a1c>
    29ad:	73 20                	jae    29cf <code+0x29cf>
    29af:	3c 20                	cmp    al,0x20
    29b1:	30 0a                	xor    BYTE PTR [edx],cl
    29b3:	00 0a                	add    BYTE PTR [edx],cl
    29b5:	00 65 78             	add    BYTE PTR [ebp+0x78],ah
    29b8:	69 74 00 65 78 69 74 	imul   esi,DWORD PTR [eax+eax*1+0x65],0xa746978
    29bf:	0a 
    29c0:	00 08                	add    BYTE PTR [eax],cl
    29c2:	20 08                	and    BYTE PTR [eax],cl
    29c4:	00 2f                	add    BYTE PTR [edi],ch
    29c6:	65                   	gs
    29c7:	74 63                	je     2a2c <code+0x2a2c>
    29c9:	2f                   	das    
    29ca:	70 61                	jo     2a2d <code+0x2a2d>
    29cc:	73 73                	jae    2a41 <code+0x2a41>
    29ce:	77 64                	ja     2a34 <code+0x2a34>
    29d0:	00 43 61             	add    BYTE PTR [ebx+0x61],al
    29d3:	6e                   	outs   dx,BYTE PTR ds:[esi]
    29d4:	6e                   	outs   dx,BYTE PTR ds:[esi]
    29d5:	6f                   	outs   dx,DWORD PTR ds:[esi]
    29d6:	74 20                	je     29f8 <code+0x29f8>
    29d8:	6f                   	outs   dx,DWORD PTR ds:[esi]
    29d9:	70 65                	jo     2a40 <code+0x2a40>
    29db:	6e                   	outs   dx,BYTE PTR ds:[esi]
    29dc:	20 2f                	and    BYTE PTR [edi],ch
    29de:	65                   	gs
    29df:	74 63                	je     2a44 <code+0x2a44>
    29e1:	2f                   	das    
    29e2:	70 61                	jo     2a45 <code+0x2a45>
    29e4:	73 73                	jae    2a59 <code+0x2a59>
    29e6:	77 64                	ja     2a4c <code+0x2a4c>
    29e8:	0a 00                	or     al,BYTE PTR [eax]
    29ea:	00 00                	add    BYTE PTR [eax],al
    29ec:	43                   	inc    ebx
    29ed:	61                   	popa   
    29ee:	6e                   	outs   dx,BYTE PTR ds:[esi]
    29ef:	6e                   	outs   dx,BYTE PTR ds:[esi]
    29f0:	6f                   	outs   dx,DWORD PTR ds:[esi]
    29f1:	74 20                	je     2a13 <code+0x2a13>
    29f3:	72 65                	jb     2a5a <code+0x2a5a>
    29f5:	61                   	popa   
    29f6:	64 20 2f             	and    BYTE PTR fs:[edi],ch
    29f9:	65                   	gs
    29fa:	74 63                	je     2a5f <code+0x2a5f>
    29fc:	2f                   	das    
    29fd:	70 61                	jo     2a60 <code+0x2a60>
    29ff:	73 73                	jae    2a74 <code+0x2a74>
    2a01:	77 64                	ja     2a67 <code+0x2a67>
    2a03:	2c 20                	sub    al,0x20
    2a05:	66                   	data16
    2a06:	64 20 3d 20 25 64 0a 	and    BYTE PTR fs:0xa642520,bh
    2a0d:	00 70 61             	add    BYTE PTR [eax+0x61],dh
    2a10:	73 73                	jae    2a85 <code+0x2a85>
    2a12:	77 6f                	ja     2a83 <code+0x2a83>
    2a14:	72 64                	jb     2a7a <code+0x2a7a>
    2a16:	73 00                	jae    2a18 <code+0x2a18>
	...
    2e0c:	00 00                	add    BYTE PTR [eax],al
    2e0e:	28 6e 75             	sub    BYTE PTR [esi+0x75],ch
    2e11:	6c                   	ins    BYTE PTR es:[edi],dx
    2e12:	6c                   	ins    BYTE PTR es:[edi],dx
    2e13:	29 00                	sub    DWORD PTR [eax],eax
    2e15:	00 00                	add    BYTE PTR [eax],al
    2e17:	00 a7 24 00 00 2e    	add    BYTE PTR [edi+0x2e000024],ah
    2e1d:	25 00 00 2e 25       	and    eax,0x252e0000
    2e22:	00 00                	add    BYTE PTR [eax],al
    2e24:	2e                   	cs
    2e25:	25 00 00 2e 25       	and    eax,0x252e0000
    2e2a:	00 00                	add    BYTE PTR [eax],al
    2e2c:	2e                   	cs
    2e2d:	25 00 00 2e 25       	and    eax,0x252e0000
    2e32:	00 00                	add    BYTE PTR [eax],al
    2e34:	2e                   	cs
    2e35:	25 00 00 2e 25       	and    eax,0x252e0000
    2e3a:	00 00                	add    BYTE PTR [eax],al
    2e3c:	2e                   	cs
    2e3d:	25 00 00 59 24       	and    eax,0x24590000
    2e42:	00 00                	add    BYTE PTR [eax],al
    2e44:	ef                   	out    dx,eax
    2e45:	24 00                	and    al,0x0
    2e47:	00 0b                	add    BYTE PTR [ebx],cl
    2e49:	24 00                	and    al,0x0
    2e4b:	00 2e                	add    BYTE PTR [esi],ch
    2e4d:	25 00 00 2e 25       	and    eax,0x252e0000
    2e52:	00 00                	add    BYTE PTR [eax],al
    2e54:	2e                   	cs
    2e55:	25 00 00 2e 25       	and    eax,0x252e0000
    2e5a:	00 00                	add    BYTE PTR [eax],al
    2e5c:	2e                   	cs
    2e5d:	25 00 00 2e 25       	and    eax,0x252e0000
    2e62:	00 00                	add    BYTE PTR [eax],al
    2e64:	2e                   	cs
    2e65:	25 00 00 2e 25       	and    eax,0x252e0000
    2e6a:	00 00                	add    BYTE PTR [eax],al
    2e6c:	2e                   	cs
    2e6d:	25 00 00 2e 25       	and    eax,0x252e0000
    2e72:	00 00                	add    BYTE PTR [eax],al
    2e74:	32 24 00             	xor    ah,BYTE PTR [eax+eax*1]
    2e77:	00 2e                	add    BYTE PTR [esi],ch
    2e79:	25 00 00 2e 25       	and    eax,0x252e0000
    2e7e:	00 00                	add    BYTE PTR [eax],al
    2e80:	2e                   	cs
    2e81:	25 00 00 d7 23       	and    eax,0x23d70000
    2e86:	00 00                	add    BYTE PTR [eax],al
    2e88:	2e                   	cs
    2e89:	25 00 00 cb 24       	and    eax,0x24cb0000
    2e8e:	00 00                	add    BYTE PTR [eax],al
    2e90:	2e                   	cs
    2e91:	25 00 00 2e 25       	and    eax,0x252e0000
    2e96:	00 00                	add    BYTE PTR [eax],al
    2e98:	80 24 00 00          	and    BYTE PTR [eax+eax*1],0x0
	...
